
main.elf:     file format elf32-littleriscv


Disassembly of section .text:

00000000 <_isr_handler>:
       0:	0080006f          	j	8 <_isr_routine>
       4:	1440006f          	j	148 <_start>

00000008 <_isr_routine>:
       8:	f8010113          	addi	sp,sp,-128
       c:	00112023          	sw	ra,0(sp)
      10:	00312423          	sw	gp,8(sp)
      14:	00412623          	sw	tp,12(sp)
      18:	00512823          	sw	t0,16(sp)
      1c:	00612a23          	sw	t1,20(sp)
      20:	00712c23          	sw	t2,24(sp)
      24:	00812e23          	sw	s0,28(sp)
      28:	02912023          	sw	s1,32(sp)
      2c:	02a12223          	sw	a0,36(sp)
      30:	02b12423          	sw	a1,40(sp)
      34:	02c12623          	sw	a2,44(sp)
      38:	02d12823          	sw	a3,48(sp)
      3c:	02e12a23          	sw	a4,52(sp)
      40:	02f12c23          	sw	a5,56(sp)
      44:	03012e23          	sw	a6,60(sp)
      48:	05112023          	sw	a7,64(sp)
      4c:	05212223          	sw	s2,68(sp)
      50:	05312423          	sw	s3,72(sp)
      54:	05412623          	sw	s4,76(sp)
      58:	05512823          	sw	s5,80(sp)
      5c:	05612a23          	sw	s6,84(sp)
      60:	05712c23          	sw	s7,88(sp)
      64:	05812e23          	sw	s8,92(sp)
      68:	07912023          	sw	s9,96(sp)
      6c:	07a12223          	sw	s10,100(sp)
      70:	07b12423          	sw	s11,104(sp)
      74:	07c12623          	sw	t3,108(sp)
      78:	07d12823          	sw	t4,112(sp)
      7c:	07e12a23          	sw	t5,116(sp)
      80:	07f12c23          	sw	t6,120(sp)
      84:	342022f3          	csrr	t0,mcause
      88:	80000337          	lui	t1,0x80000
      8c:	02536463          	bltu	t1,t0,b4 <external_irq>
      90:	00028833          	add	a6,t0,zero
      94:	00b00313          	li	t1,11
      98:	00628463          	beq	t0,t1,a0 <skip_init_args>
      9c:	34102573          	csrr	a0,mepc

000000a0 <skip_init_args>:
      a0:	1a8010ef          	jal	1248 <handle_exception>
      a4:	341022f3          	csrr	t0,mepc
      a8:	00428293          	addi	t0,t0,4
      ac:	34129073          	csrw	mepc,t0
      b0:	0180006f          	j	c8 <restore>

000000b4 <external_irq>:
      b4:	800002b7          	lui	t0,0x80000
      b8:	fff28293          	addi	t0,t0,-1 # 7fffffff <_stack_end+0x7fefe0e7>
      bc:	34202373          	csrr	t1,mcause
      c0:	0062f533          	and	a0,t0,t1
      c4:	299000ef          	jal	b5c <handle_interrupt>

000000c8 <restore>:
      c8:	00012083          	lw	ra,0(sp)
      cc:	00812183          	lw	gp,8(sp)
      d0:	00c12203          	lw	tp,12(sp)
      d4:	01012283          	lw	t0,16(sp)
      d8:	01412303          	lw	t1,20(sp)
      dc:	01812383          	lw	t2,24(sp)
      e0:	01c12403          	lw	s0,28(sp)
      e4:	02012483          	lw	s1,32(sp)
      e8:	02412503          	lw	a0,36(sp)
      ec:	02812583          	lw	a1,40(sp)
      f0:	02c12603          	lw	a2,44(sp)
      f4:	03012683          	lw	a3,48(sp)
      f8:	03412703          	lw	a4,52(sp)
      fc:	03812783          	lw	a5,56(sp)
     100:	03c12803          	lw	a6,60(sp)
     104:	04012883          	lw	a7,64(sp)
     108:	04412903          	lw	s2,68(sp)
     10c:	04812983          	lw	s3,72(sp)
     110:	04c12a03          	lw	s4,76(sp)
     114:	05012a83          	lw	s5,80(sp)
     118:	05412b03          	lw	s6,84(sp)
     11c:	05812b83          	lw	s7,88(sp)
     120:	05c12c03          	lw	s8,92(sp)
     124:	06012c83          	lw	s9,96(sp)
     128:	06412d03          	lw	s10,100(sp)
     12c:	06812d83          	lw	s11,104(sp)
     130:	06c12e03          	lw	t3,108(sp)
     134:	07012e83          	lw	t4,112(sp)
     138:	07412f03          	lw	t5,116(sp)
     13c:	07812f83          	lw	t6,120(sp)
     140:	08010113          	addi	sp,sp,128
     144:	30200073          	mret

00000148 <_start>:
     148:	00102117          	auipc	sp,0x102
     14c:	dd010113          	addi	sp,sp,-560 # 101f18 <_stack_end>
     150:	00002197          	auipc	gp,0x2
     154:	e2518193          	addi	gp,gp,-475 # 1f75 <__global_pointer>
     158:	00001517          	auipc	a0,0x1
     15c:	56850513          	addi	a0,a0,1384 # 16c0 <welcome_msg>
     160:	00400893          	li	a7,4
     164:	00000073          	ecall
     168:	5d9000ef          	jal	f40 <main>

0000016c <loop>:
     16c:	0000006f          	j	16c <loop>

00000170 <enable_interrupt>:
     170:	30486073          	csrsi	mie,16
     174:	3001e073          	csrsi	mstatus,3
     178:	00008067          	ret

0000017c <set_displays>:
     17c:	004007b7          	lui	a5,0x400
     180:	00578793          	addi	a5,a5,5 # 400005 <_stack_end+0x2fe0ed>
     184:	00f50533          	add	a0,a0,a5
     188:	00b00793          	li	a5,11
     18c:	00451513          	slli	a0,a0,0x4
     190:	0ab7e663          	bltu	a5,a1,23c <set_displays+0xc0>
     194:	000027b7          	lui	a5,0x2
     198:	dbc78793          	addi	a5,a5,-580 # 1dbc <direction+0x4>
     19c:	00259593          	slli	a1,a1,0x2
     1a0:	00f585b3          	add	a1,a1,a5
     1a4:	0005a783          	lw	a5,0(a1)
     1a8:	00078067          	jr	a5
     1ac:	0c600793          	li	a5,198
     1b0:	00f52023          	sw	a5,0(a0)
     1b4:	00008067          	ret
     1b8:	08900793          	li	a5,137
     1bc:	00f52023          	sw	a5,0(a0)
     1c0:	00008067          	ret
     1c4:	0c000793          	li	a5,192
     1c8:	00f52023          	sw	a5,0(a0)
     1cc:	00008067          	ret
     1d0:	0f900793          	li	a5,249
     1d4:	00f52023          	sw	a5,0(a0)
     1d8:	00008067          	ret
     1dc:	0a400793          	li	a5,164
     1e0:	00f52023          	sw	a5,0(a0)
     1e4:	00008067          	ret
     1e8:	0b000793          	li	a5,176
     1ec:	00f52023          	sw	a5,0(a0)
     1f0:	00008067          	ret
     1f4:	09900793          	li	a5,153
     1f8:	00f52023          	sw	a5,0(a0)
     1fc:	00008067          	ret
     200:	09200793          	li	a5,146
     204:	00f52023          	sw	a5,0(a0)
     208:	00008067          	ret
     20c:	08200793          	li	a5,130
     210:	00f52023          	sw	a5,0(a0)
     214:	00008067          	ret
     218:	0f800793          	li	a5,248
     21c:	00f52023          	sw	a5,0(a0)
     220:	00008067          	ret
     224:	08000793          	li	a5,128
     228:	00f52023          	sw	a5,0(a0)
     22c:	00008067          	ret
     230:	09000793          	li	a5,144
     234:	00f52023          	sw	a5,0(a0)
     238:	00008067          	ret
     23c:	0ff00793          	li	a5,255
     240:	00f52023          	sw	a5,0(a0)
     244:	00008067          	ret

00000248 <display_score>:
     248:	00a00793          	li	a5,10
     24c:	02f567b3          	rem	a5,a0,a5
     250:	00900713          	li	a4,9
     254:	2af76c63          	bltu	a4,a5,50c <display_score+0x2c4>
     258:	00002737          	lui	a4,0x2
     25c:	00279793          	slli	a5,a5,0x2
     260:	dec70713          	addi	a4,a4,-532 # 1dec <direction+0x34>
     264:	00e787b3          	add	a5,a5,a4
     268:	0007a783          	lw	a5,0(a5)
     26c:	00078067          	jr	a5
     270:	040007b7          	lui	a5,0x4000
     274:	08000713          	li	a4,128
     278:	04e7a823          	sw	a4,80(a5) # 4000050 <_stack_end+0x3efe138>
     27c:	00a00713          	li	a4,10
     280:	02e547b3          	div	a5,a0,a4
     284:	00900693          	li	a3,9
     288:	02e7e7b3          	rem	a5,a5,a4
     28c:	28f6e863          	bltu	a3,a5,51c <display_score+0x2d4>
     290:	00002737          	lui	a4,0x2
     294:	00279793          	slli	a5,a5,0x2
     298:	e1470713          	addi	a4,a4,-492 # 1e14 <direction+0x5c>
     29c:	00e787b3          	add	a5,a5,a4
     2a0:	0007a783          	lw	a5,0(a5)
     2a4:	00078067          	jr	a5
     2a8:	040007b7          	lui	a5,0x4000
     2ac:	08000713          	li	a4,128
     2b0:	06e7a023          	sw	a4,96(a5) # 4000060 <_stack_end+0x3efe148>
     2b4:	06400793          	li	a5,100
     2b8:	02f54533          	div	a0,a0,a5
     2bc:	00b00793          	li	a5,11
     2c0:	22a7ee63          	bltu	a5,a0,4fc <display_score+0x2b4>
     2c4:	000027b7          	lui	a5,0x2
     2c8:	e3c78793          	addi	a5,a5,-452 # 1e3c <direction+0x84>
     2cc:	00251513          	slli	a0,a0,0x2
     2d0:	00f50533          	add	a0,a0,a5
     2d4:	00052783          	lw	a5,0(a0)
     2d8:	00078067          	jr	a5
     2dc:	040007b7          	lui	a5,0x4000
     2e0:	0f800713          	li	a4,248
     2e4:	06e7a023          	sw	a4,96(a5) # 4000060 <_stack_end+0x3efe148>
     2e8:	fcdff06f          	j	2b4 <display_score+0x6c>
     2ec:	040007b7          	lui	a5,0x4000
     2f0:	09200713          	li	a4,146
     2f4:	06e7a023          	sw	a4,96(a5) # 4000060 <_stack_end+0x3efe148>
     2f8:	fbdff06f          	j	2b4 <display_score+0x6c>
     2fc:	040007b7          	lui	a5,0x4000
     300:	09900713          	li	a4,153
     304:	06e7a023          	sw	a4,96(a5) # 4000060 <_stack_end+0x3efe148>
     308:	fadff06f          	j	2b4 <display_score+0x6c>
     30c:	040007b7          	lui	a5,0x4000
     310:	08200713          	li	a4,130
     314:	06e7a023          	sw	a4,96(a5) # 4000060 <_stack_end+0x3efe148>
     318:	f9dff06f          	j	2b4 <display_score+0x6c>
     31c:	040007b7          	lui	a5,0x4000
     320:	0b000713          	li	a4,176
     324:	06e7a023          	sw	a4,96(a5) # 4000060 <_stack_end+0x3efe148>
     328:	f8dff06f          	j	2b4 <display_score+0x6c>
     32c:	040007b7          	lui	a5,0x4000
     330:	0a400713          	li	a4,164
     334:	06e7a023          	sw	a4,96(a5) # 4000060 <_stack_end+0x3efe148>
     338:	f7dff06f          	j	2b4 <display_score+0x6c>
     33c:	040007b7          	lui	a5,0x4000
     340:	0f900713          	li	a4,249
     344:	06e7a023          	sw	a4,96(a5) # 4000060 <_stack_end+0x3efe148>
     348:	f6dff06f          	j	2b4 <display_score+0x6c>
     34c:	040007b7          	lui	a5,0x4000
     350:	0c000713          	li	a4,192
     354:	06e7a023          	sw	a4,96(a5) # 4000060 <_stack_end+0x3efe148>
     358:	f5dff06f          	j	2b4 <display_score+0x6c>
     35c:	040007b7          	lui	a5,0x4000
     360:	09000713          	li	a4,144
     364:	06e7a023          	sw	a4,96(a5) # 4000060 <_stack_end+0x3efe148>
     368:	f4dff06f          	j	2b4 <display_score+0x6c>
     36c:	040007b7          	lui	a5,0x4000
     370:	09000713          	li	a4,144
     374:	04e7a823          	sw	a4,80(a5) # 4000050 <_stack_end+0x3efe138>
     378:	f05ff06f          	j	27c <display_score+0x34>
     37c:	040007b7          	lui	a5,0x4000
     380:	0c000713          	li	a4,192
     384:	04e7a823          	sw	a4,80(a5) # 4000050 <_stack_end+0x3efe138>
     388:	ef5ff06f          	j	27c <display_score+0x34>
     38c:	040007b7          	lui	a5,0x4000
     390:	0f900713          	li	a4,249
     394:	04e7a823          	sw	a4,80(a5) # 4000050 <_stack_end+0x3efe138>
     398:	ee5ff06f          	j	27c <display_score+0x34>
     39c:	040007b7          	lui	a5,0x4000
     3a0:	0a400713          	li	a4,164
     3a4:	04e7a823          	sw	a4,80(a5) # 4000050 <_stack_end+0x3efe138>
     3a8:	ed5ff06f          	j	27c <display_score+0x34>
     3ac:	040007b7          	lui	a5,0x4000
     3b0:	0b000713          	li	a4,176
     3b4:	04e7a823          	sw	a4,80(a5) # 4000050 <_stack_end+0x3efe138>
     3b8:	ec5ff06f          	j	27c <display_score+0x34>
     3bc:	040007b7          	lui	a5,0x4000
     3c0:	09900713          	li	a4,153
     3c4:	04e7a823          	sw	a4,80(a5) # 4000050 <_stack_end+0x3efe138>
     3c8:	eb5ff06f          	j	27c <display_score+0x34>
     3cc:	040007b7          	lui	a5,0x4000
     3d0:	09200713          	li	a4,146
     3d4:	04e7a823          	sw	a4,80(a5) # 4000050 <_stack_end+0x3efe138>
     3d8:	ea5ff06f          	j	27c <display_score+0x34>
     3dc:	040007b7          	lui	a5,0x4000
     3e0:	08200713          	li	a4,130
     3e4:	04e7a823          	sw	a4,80(a5) # 4000050 <_stack_end+0x3efe138>
     3e8:	e95ff06f          	j	27c <display_score+0x34>
     3ec:	040007b7          	lui	a5,0x4000
     3f0:	0f800713          	li	a4,248
     3f4:	04e7a823          	sw	a4,80(a5) # 4000050 <_stack_end+0x3efe138>
     3f8:	e85ff06f          	j	27c <display_score+0x34>
     3fc:	040007b7          	lui	a5,0x4000
     400:	0c600713          	li	a4,198
     404:	06e7a823          	sw	a4,112(a5) # 4000070 <_stack_end+0x3efe158>
     408:	0ff00693          	li	a3,255
     40c:	040007b7          	lui	a5,0x4000
     410:	04000737          	lui	a4,0x4000
     414:	08d7a023          	sw	a3,128(a5) # 4000080 <_stack_end+0x3efe168>
     418:	08d72823          	sw	a3,144(a4) # 4000090 <_stack_end+0x3efe178>
     41c:	06300713          	li	a4,99
     420:	0ce58863          	beq	a1,a4,4f0 <display_score+0x2a8>
     424:	06800793          	li	a5,104
     428:	00f58463          	beq	a1,a5,430 <display_score+0x1e8>
     42c:	00008067          	ret
     430:	040007b7          	lui	a5,0x4000
     434:	08900713          	li	a4,137
     438:	0ae7a023          	sw	a4,160(a5) # 40000a0 <_stack_end+0x3efe188>
     43c:	00008067          	ret
     440:	040007b7          	lui	a5,0x4000
     444:	09000713          	li	a4,144
     448:	06e7a823          	sw	a4,112(a5) # 4000070 <_stack_end+0x3efe158>
     44c:	fbdff06f          	j	408 <display_score+0x1c0>
     450:	040007b7          	lui	a5,0x4000
     454:	08000713          	li	a4,128
     458:	06e7a823          	sw	a4,112(a5) # 4000070 <_stack_end+0x3efe158>
     45c:	fadff06f          	j	408 <display_score+0x1c0>
     460:	040007b7          	lui	a5,0x4000
     464:	0f800713          	li	a4,248
     468:	06e7a823          	sw	a4,112(a5) # 4000070 <_stack_end+0x3efe158>
     46c:	f9dff06f          	j	408 <display_score+0x1c0>
     470:	040007b7          	lui	a5,0x4000
     474:	08200713          	li	a4,130
     478:	06e7a823          	sw	a4,112(a5) # 4000070 <_stack_end+0x3efe158>
     47c:	f8dff06f          	j	408 <display_score+0x1c0>
     480:	040007b7          	lui	a5,0x4000
     484:	09200713          	li	a4,146
     488:	06e7a823          	sw	a4,112(a5) # 4000070 <_stack_end+0x3efe158>
     48c:	f7dff06f          	j	408 <display_score+0x1c0>
     490:	040007b7          	lui	a5,0x4000
     494:	09900713          	li	a4,153
     498:	06e7a823          	sw	a4,112(a5) # 4000070 <_stack_end+0x3efe158>
     49c:	f6dff06f          	j	408 <display_score+0x1c0>
     4a0:	040007b7          	lui	a5,0x4000
     4a4:	0b000713          	li	a4,176
     4a8:	06e7a823          	sw	a4,112(a5) # 4000070 <_stack_end+0x3efe158>
     4ac:	f5dff06f          	j	408 <display_score+0x1c0>
     4b0:	040007b7          	lui	a5,0x4000
     4b4:	0a400713          	li	a4,164
     4b8:	06e7a823          	sw	a4,112(a5) # 4000070 <_stack_end+0x3efe158>
     4bc:	f4dff06f          	j	408 <display_score+0x1c0>
     4c0:	040007b7          	lui	a5,0x4000
     4c4:	0f900713          	li	a4,249
     4c8:	06e7a823          	sw	a4,112(a5) # 4000070 <_stack_end+0x3efe158>
     4cc:	f3dff06f          	j	408 <display_score+0x1c0>
     4d0:	040007b7          	lui	a5,0x4000
     4d4:	0c000713          	li	a4,192
     4d8:	06e7a823          	sw	a4,112(a5) # 4000070 <_stack_end+0x3efe158>
     4dc:	f2dff06f          	j	408 <display_score+0x1c0>
     4e0:	040007b7          	lui	a5,0x4000
     4e4:	08900713          	li	a4,137
     4e8:	06e7a823          	sw	a4,112(a5) # 4000070 <_stack_end+0x3efe158>
     4ec:	f1dff06f          	j	408 <display_score+0x1c0>
     4f0:	0c600713          	li	a4,198
     4f4:	0ae7a023          	sw	a4,160(a5)
     4f8:	00008067          	ret
     4fc:	040007b7          	lui	a5,0x4000
     500:	0ff00713          	li	a4,255
     504:	06e7a823          	sw	a4,112(a5) # 4000070 <_stack_end+0x3efe158>
     508:	f01ff06f          	j	408 <display_score+0x1c0>
     50c:	040007b7          	lui	a5,0x4000
     510:	0ff00713          	li	a4,255
     514:	04e7a823          	sw	a4,80(a5) # 4000050 <_stack_end+0x3efe138>
     518:	d65ff06f          	j	27c <display_score+0x34>
     51c:	040007b7          	lui	a5,0x4000
     520:	0ff00713          	li	a4,255
     524:	06e7a023          	sw	a4,96(a5) # 4000060 <_stack_end+0x3efe148>
     528:	d8dff06f          	j	2b4 <display_score+0x6c>

0000052c <random_range>:
     52c:	1b100793          	li	a5,433
     530:	02f507b3          	mul	a5,a0,a5
     534:	00003737          	lui	a4,0x3
     538:	03970713          	addi	a4,a4,57 # 3039 <__global_pointer+0x10c4>
     53c:	00e787b3          	add	a5,a5,a4
     540:	02b7f533          	remu	a0,a5,a1
     544:	00008067          	ret

00000548 <get_sw>:
     548:	040007b7          	lui	a5,0x4000
     54c:	0107a503          	lw	a0,16(a5) # 4000010 <_stack_end+0x3efe0f8>
     550:	00157513          	andi	a0,a0,1
     554:	00008067          	ret

00000558 <get_btn_restart>:
     558:	040007b7          	lui	a5,0x4000
     55c:	0d07a503          	lw	a0,208(a5) # 40000d0 <_stack_end+0x3efe1b8>
     560:	00157513          	andi	a0,a0,1
     564:	00008067          	ret

00000568 <get_btn1>:
     568:	040007b7          	lui	a5,0x4000
     56c:	0e07a503          	lw	a0,224(a5) # 40000e0 <_stack_end+0x3efe1c8>
     570:	00157513          	andi	a0,a0,1
     574:	00008067          	ret

00000578 <get_btn2>:
     578:	040007b7          	lui	a5,0x4000
     57c:	0e07a503          	lw	a0,224(a5) # 40000e0 <_stack_end+0x3efe1c8>
     580:	00257513          	andi	a0,a0,2
     584:	00008067          	ret

00000588 <draw_board>:
     588:	00003337          	lui	t1,0x3
     58c:	02800f13          	li	t5,40
     590:	00000893          	li	a7,0
     594:	00002537          	lui	a0,0x2
     598:	000015b7          	lui	a1,0x1
     59c:	20030313          	addi	t1,t1,512 # 3200 <__global_pointer+0x128b>
     5a0:	00600f93          	li	t6,6
     5a4:	000f0e93          	mv	t4,t5
     5a8:	00088e13          	mv	t3,a7
     5ac:	00888293          	addi	t0,a7,8
     5b0:	001e7613          	andi	a2,t3,1
     5b4:	40c00633          	neg	a2,a2
     5b8:	05067613          	andi	a2,a2,80
     5bc:	04c60613          	addi	a2,a2,76
     5c0:	000e8693          	mv	a3,t4
     5c4:	006e8833          	add	a6,t4,t1
     5c8:	fd868793          	addi	a5,a3,-40
     5cc:	7785a703          	lw	a4,1912(a1) # 1778 <VGA>
     5d0:	d8f52a23          	sw	a5,-620(a0) # 1d94 <pixel_index>
     5d4:	00f70733          	add	a4,a4,a5
     5d8:	00c70023          	sb	a2,0(a4)
     5dc:	00178793          	addi	a5,a5,1
     5e0:	fef696e3          	bne	a3,a5,5cc <draw_board+0x44>
     5e4:	14068693          	addi	a3,a3,320
     5e8:	ff0690e3          	bne	a3,a6,5c8 <draw_board+0x40>
     5ec:	001e0e13          	addi	t3,t3,1
     5f0:	028e8e93          	addi	t4,t4,40
     5f4:	fa5e1ee3          	bne	t3,t0,5b0 <draw_board+0x28>
     5f8:	00188893          	addi	a7,a7,1
     5fc:	006f0f33          	add	t5,t5,t1
     600:	fbf892e3          	bne	a7,t6,5a4 <draw_board+0x1c>
     604:	00008067          	ret

00000608 <draw_box>:
     608:	000037b7          	lui	a5,0x3
     60c:	20078793          	addi	a5,a5,512 # 3200 <__global_pointer+0x128b>
     610:	02f507b3          	mul	a5,a0,a5
     614:	00259713          	slli	a4,a1,0x2
     618:	00003837          	lui	a6,0x3
     61c:	00b70733          	add	a4,a4,a1
     620:	22880813          	addi	a6,a6,552 # 3228 <__global_pointer+0x12b3>
     624:	00371713          	slli	a4,a4,0x3
     628:	0ff67613          	zext.b	a2,a2
     62c:	00002537          	lui	a0,0x2
     630:	000015b7          	lui	a1,0x1
     634:	02878693          	addi	a3,a5,40
     638:	010787b3          	add	a5,a5,a6
     63c:	00e686b3          	add	a3,a3,a4
     640:	00e78833          	add	a6,a5,a4
     644:	fd868793          	addi	a5,a3,-40
     648:	7785a703          	lw	a4,1912(a1) # 1778 <VGA>
     64c:	d8f52a23          	sw	a5,-620(a0) # 1d94 <pixel_index>
     650:	00f70733          	add	a4,a4,a5
     654:	00c70023          	sb	a2,0(a4)
     658:	00178793          	addi	a5,a5,1
     65c:	fef696e3          	bne	a3,a5,648 <draw_box+0x40>
     660:	14068693          	addi	a3,a3,320
     664:	ff0690e3          	bne	a3,a6,644 <draw_box+0x3c>
     668:	00008067          	ret

0000066c <draw_food_box>:
     66c:	000037b7          	lui	a5,0x3
     670:	20078793          	addi	a5,a5,512 # 3200 <__global_pointer+0x128b>
     674:	02f507b3          	mul	a5,a0,a5
     678:	00259713          	slli	a4,a1,0x2
     67c:	00003837          	lui	a6,0x3
     680:	00b70733          	add	a4,a4,a1
     684:	e6580813          	addi	a6,a6,-411 # 2e65 <__global_pointer+0xef0>
     688:	00371713          	slli	a4,a4,0x3
     68c:	0ff67613          	zext.b	a2,a2
     690:	00002537          	lui	a0,0x2
     694:	000015b7          	lui	a1,0x1
     698:	3e578693          	addi	a3,a5,997
     69c:	010787b3          	add	a5,a5,a6
     6a0:	00e686b3          	add	a3,a3,a4
     6a4:	00e78833          	add	a6,a5,a4
     6a8:	fde68793          	addi	a5,a3,-34
     6ac:	7785a703          	lw	a4,1912(a1) # 1778 <VGA>
     6b0:	d8f52a23          	sw	a5,-620(a0) # 1d94 <pixel_index>
     6b4:	00f70733          	add	a4,a4,a5
     6b8:	00c70023          	sb	a2,0(a4)
     6bc:	00178793          	addi	a5,a5,1
     6c0:	fef696e3          	bne	a3,a5,6ac <draw_food_box+0x40>
     6c4:	14068693          	addi	a3,a3,320
     6c8:	ff0690e3          	bne	a3,a6,6a8 <draw_food_box+0x3c>
     6cc:	00008067          	ret

000006d0 <check_collision>:
     6d0:	000017b7          	lui	a5,0x1
     6d4:	79478793          	addi	a5,a5,1940 # 1794 <snake>
     6d8:	0007a603          	lw	a2,0(a5)
     6dc:	00500713          	li	a4,5
     6e0:	00100513          	li	a0,1
     6e4:	04c76463          	bltu	a4,a2,72c <check_collision+0x5c>
     6e8:	0047a803          	lw	a6,4(a5)
     6ec:	00700713          	li	a4,7
     6f0:	03076e63          	bltu	a4,a6,72c <check_collision+0x5c>
     6f4:	00002737          	lui	a4,0x2
     6f8:	db072583          	lw	a1,-592(a4) # 1db0 <snake_length>
     6fc:	02b55a63          	bge	a0,a1,730 <check_collision+0x60>
     700:	00878793          	addi	a5,a5,8
     704:	00100713          	li	a4,1
     708:	00c0006f          	j	714 <check_collision+0x44>
     70c:	00878793          	addi	a5,a5,8
     710:	02b70063          	beq	a4,a1,730 <check_collision+0x60>
     714:	0007a683          	lw	a3,0(a5)
     718:	00170713          	addi	a4,a4,1
     71c:	fed618e3          	bne	a2,a3,70c <check_collision+0x3c>
     720:	0047a683          	lw	a3,4(a5)
     724:	fed814e3          	bne	a6,a3,70c <check_collision+0x3c>
     728:	00100513          	li	a0,1
     72c:	00008067          	ret
     730:	00000513          	li	a0,0
     734:	00008067          	ret

00000738 <spawn_food>:
     738:	000017b7          	lui	a5,0x1
     73c:	7807a603          	lw	a2,1920(a5) # 1780 <random_number1>
     740:	000017b7          	lui	a5,0x1
     744:	77c7a683          	lw	a3,1916(a5) # 177c <random_number2>
     748:	1b100793          	li	a5,433
     74c:	02c78633          	mul	a2,a5,a2
     750:	000025b7          	lui	a1,0x2
     754:	00003737          	lui	a4,0x3
     758:	db05a583          	lw	a1,-592(a1) # 1db0 <snake_length>
     75c:	03970713          	addi	a4,a4,57 # 3039 <__global_pointer+0x10c4>
     760:	02d78533          	mul	a0,a5,a3
     764:	00e60633          	add	a2,a2,a4
     768:	00600793          	li	a5,6
     76c:	00e50533          	add	a0,a0,a4
     770:	02f67633          	remu	a2,a2,a5
     774:	00757513          	andi	a0,a0,7
     778:	02b05e63          	blez	a1,7b4 <spawn_food+0x7c>
     77c:	00001837          	lui	a6,0x1
     780:	79480813          	addi	a6,a6,1940 # 1794 <snake>
     784:	00080793          	mv	a5,a6
     788:	00000713          	li	a4,0
     78c:	00c0006f          	j	798 <spawn_food+0x60>
     790:	00878793          	addi	a5,a5,8
     794:	02b70063          	beq	a4,a1,7b4 <spawn_food+0x7c>
     798:	0007a683          	lw	a3,0(a5)
     79c:	00170713          	addi	a4,a4,1
     7a0:	fed618e3          	bne	a2,a3,790 <spawn_food+0x58>
     7a4:	0047a683          	lw	a3,4(a5)
     7a8:	fca68ee3          	beq	a3,a0,784 <spawn_food+0x4c>
     7ac:	00878793          	addi	a5,a5,8
     7b0:	feb714e3          	bne	a4,a1,798 <spawn_food+0x60>
     7b4:	000037b7          	lui	a5,0x3
     7b8:	20078793          	addi	a5,a5,512 # 3200 <__global_pointer+0x128b>
     7bc:	02f607b3          	mul	a5,a2,a5
     7c0:	00251813          	slli	a6,a0,0x2
     7c4:	00a80833          	add	a6,a6,a0
     7c8:	000026b7          	lui	a3,0x2
     7cc:	00381813          	slli	a6,a6,0x3
     7d0:	00003737          	lui	a4,0x3
     7d4:	daa6a423          	sw	a0,-600(a3) # 1da8 <food_y>
     7d8:	e6570713          	addi	a4,a4,-411 # 2e65 <__global_pointer+0xef0>
     7dc:	000026b7          	lui	a3,0x2
     7e0:	dac6a623          	sw	a2,-596(a3) # 1dac <food_x>
     7e4:	00f80833          	add	a6,a6,a5
     7e8:	3e580693          	addi	a3,a6,997
     7ec:	00002537          	lui	a0,0x2
     7f0:	00e80833          	add	a6,a6,a4
     7f4:	000015b7          	lui	a1,0x1
     7f8:	fe000613          	li	a2,-32
     7fc:	fde68793          	addi	a5,a3,-34
     800:	7785a703          	lw	a4,1912(a1) # 1778 <VGA>
     804:	d8f52a23          	sw	a5,-620(a0) # 1d94 <pixel_index>
     808:	00f70733          	add	a4,a4,a5
     80c:	00c70023          	sb	a2,0(a4)
     810:	00178793          	addi	a5,a5,1
     814:	fef696e3          	bne	a3,a5,800 <__heap_size>
     818:	14068693          	addi	a3,a3,320
     81c:	fed810e3          	bne	a6,a3,7fc <spawn_food+0xc4>
     820:	00008067          	ret

00000824 <check_food_collision>:
     824:	000017b7          	lui	a5,0x1
     828:	79478793          	addi	a5,a5,1940 # 1794 <snake>
     82c:	00002737          	lui	a4,0x2
     830:	0007a683          	lw	a3,0(a5)
     834:	dac72703          	lw	a4,-596(a4) # 1dac <food_x>
     838:	00e68463          	beq	a3,a4,840 <check_food_collision+0x1c>
     83c:	00008067          	ret
     840:	0047a703          	lw	a4,4(a5)
     844:	000027b7          	lui	a5,0x2
     848:	da87a783          	lw	a5,-600(a5) # 1da8 <food_y>
     84c:	fef718e3          	bne	a4,a5,83c <check_food_collision+0x18>
     850:	00002637          	lui	a2,0x2
     854:	000026b7          	lui	a3,0x2
     858:	db062703          	lw	a4,-592(a2) # 1db0 <snake_length>
     85c:	da06a783          	lw	a5,-608(a3) # 1da0 <current_highscore>
     860:	000025b7          	lui	a1,0x2
     864:	00170713          	addi	a4,a4,1
     868:	00178793          	addi	a5,a5,1
     86c:	00100513          	li	a0,1
     870:	daa5a223          	sw	a0,-604(a1) # 1da4 <has_eaten>
     874:	dae62823          	sw	a4,-592(a2)
     878:	daf6a023          	sw	a5,-608(a3)
     87c:	ebdff06f          	j	738 <spawn_food>

00000880 <update_snake>:
     880:	000028b7          	lui	a7,0x2
     884:	db08a603          	lw	a2,-592(a7) # 1db0 <snake_length>
     888:	ff010113          	addi	sp,sp,-16
     88c:	00001e37          	lui	t3,0x1
     890:	fff60793          	addi	a5,a2,-1
     894:	00812423          	sw	s0,8(sp)
     898:	00379693          	slli	a3,a5,0x3
     89c:	794e0413          	addi	s0,t3,1940 # 1794 <snake>
     8a0:	00d406b3          	add	a3,s0,a3
     8a4:	00002337          	lui	t1,0x2
     8a8:	0006a703          	lw	a4,0(a3)
     8ac:	da432583          	lw	a1,-604(t1) # 1da4 <has_eaten>
     8b0:	0046a683          	lw	a3,4(a3)
     8b4:	00112623          	sw	ra,12(sp)
     8b8:	00d70533          	add	a0,a4,a3
     8bc:	14059e63          	bnez	a1,a18 <update_snake+0x198>
     8c0:	000037b7          	lui	a5,0x3
     8c4:	20078793          	addi	a5,a5,512 # 3200 <__global_pointer+0x128b>
     8c8:	02f70733          	mul	a4,a4,a5
     8cc:	00269813          	slli	a6,a3,0x2
     8d0:	00d80833          	add	a6,a6,a3
     8d4:	00157513          	andi	a0,a0,1
     8d8:	40a00533          	neg	a0,a0
     8dc:	00381813          	slli	a6,a6,0x3
     8e0:	000037b7          	lui	a5,0x3
     8e4:	05057513          	andi	a0,a0,80
     8e8:	22878793          	addi	a5,a5,552 # 3228 <__global_pointer+0x12b3>
     8ec:	04c50513          	addi	a0,a0,76
     8f0:	00e80833          	add	a6,a6,a4
     8f4:	02880593          	addi	a1,a6,40
     8f8:	00002637          	lui	a2,0x2
     8fc:	000016b7          	lui	a3,0x1
     900:	00f80833          	add	a6,a6,a5
     904:	fd858793          	addi	a5,a1,-40
     908:	7786a703          	lw	a4,1912(a3) # 1778 <VGA>
     90c:	d8f62a23          	sw	a5,-620(a2) # 1d94 <pixel_index>
     910:	00f70733          	add	a4,a4,a5
     914:	00a70023          	sb	a0,0(a4)
     918:	00178793          	addi	a5,a5,1
     91c:	fef596e3          	bne	a1,a5,908 <update_snake+0x88>
     920:	14058593          	addi	a1,a1,320
     924:	feb810e3          	bne	a6,a1,904 <update_snake+0x84>
     928:	db08a603          	lw	a2,-592(a7)
     92c:	fff60793          	addi	a5,a2,-1
     930:	02f05463          	blez	a5,958 <update_snake+0xd8>
     934:	00379793          	slli	a5,a5,0x3
     938:	00f407b3          	add	a5,s0,a5
     93c:	794e0413          	addi	s0,t3,1940
     940:	ffc7a683          	lw	a3,-4(a5)
     944:	ff87a703          	lw	a4,-8(a5)
     948:	ff878793          	addi	a5,a5,-8
     94c:	00d7a623          	sw	a3,12(a5)
     950:	00e7a423          	sw	a4,8(a5)
     954:	fef416e3          	bne	s0,a5,940 <update_snake+0xc0>
     958:	000027b7          	lui	a5,0x2
     95c:	db87a683          	lw	a3,-584(a5) # 1db8 <direction>
     960:	00200513          	li	a0,2
     964:	00042783          	lw	a5,0(s0)
     968:	41f6d593          	srai	a1,a3,0x1f
     96c:	01e5d593          	srli	a1,a1,0x1e
     970:	00b68733          	add	a4,a3,a1
     974:	00377713          	andi	a4,a4,3
     978:	40b70733          	sub	a4,a4,a1
     97c:	18a70a63          	beq	a4,a0,b10 <update_snake+0x290>
     980:	00300593          	li	a1,3
     984:	18b70063          	beq	a4,a1,b04 <update_snake+0x284>
     988:	0036f693          	andi	a3,a3,3
     98c:	08068a63          	beqz	a3,a20 <update_snake+0x1a0>
     990:	00100693          	li	a3,1
     994:	00d71663          	bne	a4,a3,9a0 <update_snake+0x120>
     998:	00178793          	addi	a5,a5,1
     99c:	00f42023          	sw	a5,0(s0)
     9a0:	00500713          	li	a4,5
     9a4:	04f76063          	bltu	a4,a5,9e4 <update_snake+0x164>
     9a8:	00442503          	lw	a0,4(s0)
     9ac:	00700713          	li	a4,7
     9b0:	02a76a63          	bltu	a4,a0,9e4 <update_snake+0x164>
     9b4:	00100713          	li	a4,1
     9b8:	06c75c63          	bge	a4,a2,a30 <update_snake+0x1b0>
     9bc:	00840713          	addi	a4,s0,8
     9c0:	00100693          	li	a3,1
     9c4:	00c0006f          	j	9d0 <update_snake+0x150>
     9c8:	00870713          	addi	a4,a4,8
     9cc:	06c68263          	beq	a3,a2,a30 <update_snake+0x1b0>
     9d0:	00072583          	lw	a1,0(a4)
     9d4:	00168693          	addi	a3,a3,1
     9d8:	fef598e3          	bne	a1,a5,9c8 <update_snake+0x148>
     9dc:	00472583          	lw	a1,4(a4)
     9e0:	feb514e3          	bne	a0,a1,9c8 <update_snake+0x148>
     9e4:	000027b7          	lui	a5,0x2
     9e8:	00002737          	lui	a4,0x2
     9ec:	da072703          	lw	a4,-608(a4) # 1da0 <current_highscore>
     9f0:	d9c7a683          	lw	a3,-612(a5) # 1d9c <highest_score>
     9f4:	00002637          	lui	a2,0x2
     9f8:	00100593          	li	a1,1
     9fc:	d8b62c23          	sw	a1,-616(a2) # 1d98 <gameover>
     a00:	00e6d463          	bge	a3,a4,a08 <update_snake+0x188>
     a04:	d8e7ae23          	sw	a4,-612(a5)
     a08:	00c12083          	lw	ra,12(sp)
     a0c:	00812403          	lw	s0,8(sp)
     a10:	01010113          	addi	sp,sp,16
     a14:	00008067          	ret
     a18:	da032223          	sw	zero,-604(t1)
     a1c:	f15ff06f          	j	930 <update_snake+0xb0>
     a20:	00442703          	lw	a4,4(s0)
     a24:	00170713          	addi	a4,a4,1
     a28:	00e42223          	sw	a4,4(s0)
     a2c:	f75ff06f          	j	9a0 <update_snake+0x120>
     a30:	00002737          	lui	a4,0x2
     a34:	dac72703          	lw	a4,-596(a4) # 1dac <food_x>
     a38:	0ef70463          	beq	a4,a5,b20 <update_snake+0x2a0>
     a3c:	00003737          	lui	a4,0x3
     a40:	20070713          	addi	a4,a4,512 # 3200 <__global_pointer+0x128b>
     a44:	02e787b3          	mul	a5,a5,a4
     a48:	00251813          	slli	a6,a0,0x2
     a4c:	00a80833          	add	a6,a6,a0
     a50:	00381813          	slli	a6,a6,0x3
     a54:	00003737          	lui	a4,0x3
     a58:	22870713          	addi	a4,a4,552 # 3228 <__global_pointer+0x12b3>
     a5c:	00002637          	lui	a2,0x2
     a60:	000016b7          	lui	a3,0x1
     a64:	04500513          	li	a0,69
     a68:	00f80833          	add	a6,a6,a5
     a6c:	02880593          	addi	a1,a6,40
     a70:	00e80833          	add	a6,a6,a4
     a74:	fd858793          	addi	a5,a1,-40
     a78:	7786a703          	lw	a4,1912(a3) # 1778 <VGA>
     a7c:	d8f62a23          	sw	a5,-620(a2) # 1d94 <pixel_index>
     a80:	00f70733          	add	a4,a4,a5
     a84:	00a70023          	sb	a0,0(a4)
     a88:	00178793          	addi	a5,a5,1
     a8c:	fef596e3          	bne	a1,a5,a78 <update_snake+0x1f8>
     a90:	14058593          	addi	a1,a1,320
     a94:	feb810e3          	bne	a6,a1,a74 <update_snake+0x1f4>
     a98:	00842803          	lw	a6,8(s0)
     a9c:	000037b7          	lui	a5,0x3
     aa0:	20078793          	addi	a5,a5,512 # 3200 <__global_pointer+0x128b>
     aa4:	02f80833          	mul	a6,a6,a5
     aa8:	00c42583          	lw	a1,12(s0)
     aac:	00003737          	lui	a4,0x3
     ab0:	22870713          	addi	a4,a4,552 # 3228 <__global_pointer+0x12b3>
     ab4:	00259793          	slli	a5,a1,0x2
     ab8:	00b787b3          	add	a5,a5,a1
     abc:	00379793          	slli	a5,a5,0x3
     ac0:	fff00513          	li	a0,-1
     ac4:	00f80833          	add	a6,a6,a5
     ac8:	02880593          	addi	a1,a6,40
     acc:	00e80833          	add	a6,a6,a4
     ad0:	fd858793          	addi	a5,a1,-40
     ad4:	7786a703          	lw	a4,1912(a3)
     ad8:	d8f62a23          	sw	a5,-620(a2)
     adc:	00f70733          	add	a4,a4,a5
     ae0:	00a70023          	sb	a0,0(a4)
     ae4:	00178793          	addi	a5,a5,1
     ae8:	feb796e3          	bne	a5,a1,ad4 <update_snake+0x254>
     aec:	14058593          	addi	a1,a1,320
     af0:	feb810e3          	bne	a6,a1,ad0 <update_snake+0x250>
     af4:	00c12083          	lw	ra,12(sp)
     af8:	00812403          	lw	s0,8(sp)
     afc:	01010113          	addi	sp,sp,16
     b00:	00008067          	ret
     b04:	fff78793          	addi	a5,a5,-1
     b08:	00f42023          	sw	a5,0(s0)
     b0c:	e95ff06f          	j	9a0 <update_snake+0x120>
     b10:	00442703          	lw	a4,4(s0)
     b14:	fff70713          	addi	a4,a4,-1
     b18:	00e42223          	sw	a4,4(s0)
     b1c:	e85ff06f          	j	9a0 <update_snake+0x120>
     b20:	00002737          	lui	a4,0x2
     b24:	da872703          	lw	a4,-600(a4) # 1da8 <food_y>
     b28:	f0e51ae3          	bne	a0,a4,a3c <update_snake+0x1bc>
     b2c:	00002737          	lui	a4,0x2
     b30:	da072783          	lw	a5,-608(a4) # 1da0 <current_highscore>
     b34:	00160613          	addi	a2,a2,1
     b38:	00100693          	li	a3,1
     b3c:	00178793          	addi	a5,a5,1
     b40:	daf72023          	sw	a5,-608(a4)
     b44:	dad32223          	sw	a3,-604(t1)
     b48:	dac8a823          	sw	a2,-592(a7)
     b4c:	bedff0ef          	jal	738 <spawn_food>
     b50:	00042783          	lw	a5,0(s0)
     b54:	00442503          	lw	a0,4(s0)
     b58:	ee5ff06f          	j	a3c <update_snake+0x1bc>

00000b5c <handle_interrupt>:
     b5c:	01000793          	li	a5,16
     b60:	00f50463          	beq	a0,a5,b68 <handle_interrupt+0xc>
     b64:	00008067          	ret
     b68:	ff010113          	addi	sp,sp,-16
     b6c:	00912223          	sw	s1,4(sp)
     b70:	000014b7          	lui	s1,0x1
     b74:	7844a603          	lw	a2,1924(s1) # 1784 <timeoutcount>
     b78:	040007b7          	lui	a5,0x4000
     b7c:	0207d703          	lhu	a4,32(a5) # 4000020 <_stack_end+0x3efe108>
     b80:	000106b7          	lui	a3,0x10
     b84:	000025b7          	lui	a1,0x2
     b88:	00002537          	lui	a0,0x2
     b8c:	00812423          	sw	s0,8(sp)
     b90:	01212023          	sw	s2,0(sp)
     b94:	da052403          	lw	s0,-608(a0) # 1da0 <current_highscore>
     b98:	d9c5a903          	lw	s2,-612(a1) # 1d9c <highest_score>
     b9c:	00160613          	addi	a2,a2,1
     ba0:	ffe68693          	addi	a3,a3,-2 # fffe <__global_pointer+0xe089>
     ba4:	00112623          	sw	ra,12(sp)
     ba8:	78c4a223          	sw	a2,1924(s1)
     bac:	00d77733          	and	a4,a4,a3
     bb0:	02e79023          	sh	a4,32(a5)
     bb4:	00895663          	bge	s2,s0,bc0 <handle_interrupt+0x64>
     bb8:	d885ae23          	sw	s0,-612(a1)
     bbc:	00040913          	mv	s2,s0
     bc0:	04000737          	lui	a4,0x4000
     bc4:	01072783          	lw	a5,16(a4) # 4000010 <_stack_end+0x3efe0f8>
     bc8:	0017f793          	andi	a5,a5,1
     bcc:	0a079e63          	bnez	a5,c88 <handle_interrupt+0x12c>
     bd0:	00a00413          	li	s0,10
     bd4:	028965b3          	rem	a1,s2,s0
     bd8:	00000513          	li	a0,0
     bdc:	da0ff0ef          	jal	17c <set_displays>
     be0:	028945b3          	div	a1,s2,s0
     be4:	00100513          	li	a0,1
     be8:	0285e5b3          	rem	a1,a1,s0
     bec:	d90ff0ef          	jal	17c <set_displays>
     bf0:	06400593          	li	a1,100
     bf4:	02b945b3          	div	a1,s2,a1
     bf8:	00200513          	li	a0,2
     bfc:	d80ff0ef          	jal	17c <set_displays>
     c00:	0ff00613          	li	a2,255
     c04:	040006b7          	lui	a3,0x4000
     c08:	08c6a023          	sw	a2,128(a3) # 4000080 <_stack_end+0x3efe168>
     c0c:	04000737          	lui	a4,0x4000
     c10:	08c72823          	sw	a2,144(a4) # 4000090 <_stack_end+0x3efe178>
     c14:	040007b7          	lui	a5,0x4000
     c18:	08900713          	li	a4,137
     c1c:	0ae7a023          	sw	a4,160(a5) # 40000a0 <_stack_end+0x3efe188>
     c20:	7844a703          	lw	a4,1924(s1)
     c24:	00400793          	li	a5,4
     c28:	0ae7de63          	bge	a5,a4,ce4 <handle_interrupt+0x188>
     c2c:	000027b7          	lui	a5,0x2
     c30:	d987a783          	lw	a5,-616(a5) # 1d98 <gameover>
     c34:	0a079863          	bnez	a5,ce4 <handle_interrupt+0x188>
     c38:	000026b7          	lui	a3,0x2
     c3c:	db86a783          	lw	a5,-584(a3) # 1db8 <direction>
     c40:	00002637          	lui	a2,0x2
     c44:	db462583          	lw	a1,-588(a2) # 1db4 <new_direction>
     c48:	00278793          	addi	a5,a5,2
     c4c:	41f7d713          	srai	a4,a5,0x1f
     c50:	01e75713          	srli	a4,a4,0x1e
     c54:	00e787b3          	add	a5,a5,a4
     c58:	0037f793          	andi	a5,a5,3
     c5c:	7804a223          	sw	zero,1924(s1)
     c60:	40e787b3          	sub	a5,a5,a4
     c64:	00b78663          	beq	a5,a1,c70 <handle_interrupt+0x114>
     c68:	db462783          	lw	a5,-588(a2)
     c6c:	daf6ac23          	sw	a5,-584(a3)
     c70:	00812403          	lw	s0,8(sp)
     c74:	00c12083          	lw	ra,12(sp)
     c78:	00412483          	lw	s1,4(sp)
     c7c:	00012903          	lw	s2,0(sp)
     c80:	01010113          	addi	sp,sp,16
     c84:	bfdff06f          	j	880 <update_snake>
     c88:	00a00913          	li	s2,10
     c8c:	032465b3          	rem	a1,s0,s2
     c90:	00000513          	li	a0,0
     c94:	ce8ff0ef          	jal	17c <set_displays>
     c98:	032445b3          	div	a1,s0,s2
     c9c:	00100513          	li	a0,1
     ca0:	0325e5b3          	rem	a1,a1,s2
     ca4:	cd8ff0ef          	jal	17c <set_displays>
     ca8:	06400593          	li	a1,100
     cac:	02b445b3          	div	a1,s0,a1
     cb0:	00200513          	li	a0,2
     cb4:	cc8ff0ef          	jal	17c <set_displays>
     cb8:	0ff00613          	li	a2,255
     cbc:	040006b7          	lui	a3,0x4000
     cc0:	08c6a023          	sw	a2,128(a3) # 4000080 <_stack_end+0x3efe168>
     cc4:	04000737          	lui	a4,0x4000
     cc8:	08c72823          	sw	a2,144(a4) # 4000090 <_stack_end+0x3efe178>
     ccc:	040007b7          	lui	a5,0x4000
     cd0:	0c600713          	li	a4,198
     cd4:	0ae7a023          	sw	a4,160(a5) # 40000a0 <_stack_end+0x3efe188>
     cd8:	7844a703          	lw	a4,1924(s1)
     cdc:	00400793          	li	a5,4
     ce0:	f4e7c6e3          	blt	a5,a4,c2c <handle_interrupt+0xd0>
     ce4:	00c12083          	lw	ra,12(sp)
     ce8:	00812403          	lw	s0,8(sp)
     cec:	00412483          	lw	s1,4(sp)
     cf0:	00012903          	lw	s2,0(sp)
     cf4:	01010113          	addi	sp,sp,16
     cf8:	00008067          	ret

00000cfc <game_over>:
     cfc:	000027b7          	lui	a5,0x2
     d00:	00002737          	lui	a4,0x2
     d04:	da072703          	lw	a4,-608(a4) # 1da0 <current_highscore>
     d08:	d9c7a683          	lw	a3,-612(a5) # 1d9c <highest_score>
     d0c:	00002637          	lui	a2,0x2
     d10:	00100593          	li	a1,1
     d14:	d8b62c23          	sw	a1,-616(a2) # 1d98 <gameover>
     d18:	00e6d463          	bge	a3,a4,d20 <game_over+0x24>
     d1c:	d8e7ae23          	sw	a4,-612(a5)
     d20:	00008067          	ret

00000d24 <init_snake>:
     d24:	00002737          	lui	a4,0x2
     d28:	00300793          	li	a5,3
     d2c:	da072c23          	sw	zero,-584(a4) # 1db8 <direction>
     d30:	00002737          	lui	a4,0x2
     d34:	daf72823          	sw	a5,-592(a4) # 1db0 <snake_length>
     d38:	00002737          	lui	a4,0x2
     d3c:	000018b7          	lui	a7,0x1
     d40:	da072a23          	sw	zero,-588(a4) # 1db4 <new_direction>
     d44:	00002737          	lui	a4,0x2
     d48:	79488893          	addi	a7,a7,1940 # 1794 <snake>
     d4c:	da072223          	sw	zero,-604(a4) # 1da4 <has_eaten>
     d50:	00002737          	lui	a4,0x2
     d54:	00003337          	lui	t1,0x3
     d58:	da072023          	sw	zero,-608(a4) # 1da0 <current_highscore>
     d5c:	00f8a023          	sw	a5,0(a7)
     d60:	00400713          	li	a4,4
     d64:	00f8a423          	sw	a5,8(a7)
     d68:	00f8a623          	sw	a5,12(a7)
     d6c:	00f8a823          	sw	a5,16(a7)
     d70:	00200793          	li	a5,2
     d74:	00e8a223          	sw	a4,4(a7)
     d78:	00f8aa23          	sw	a5,20(a7)
     d7c:	02800f93          	li	t6,40
     d80:	00000e13          	li	t3,0
     d84:	000025b7          	lui	a1,0x2
     d88:	00001637          	lui	a2,0x1
     d8c:	20030313          	addi	t1,t1,512 # 3200 <__global_pointer+0x128b>
     d90:	00600293          	li	t0,6
     d94:	000f8f13          	mv	t5,t6
     d98:	000e0e93          	mv	t4,t3
     d9c:	008e0393          	addi	t2,t3,8
     da0:	001ef513          	andi	a0,t4,1
     da4:	40a00533          	neg	a0,a0
     da8:	05057513          	andi	a0,a0,80
     dac:	04c50513          	addi	a0,a0,76
     db0:	000f0693          	mv	a3,t5
     db4:	006f0833          	add	a6,t5,t1
     db8:	fd868793          	addi	a5,a3,-40
     dbc:	77862703          	lw	a4,1912(a2) # 1778 <VGA>
     dc0:	d8f5aa23          	sw	a5,-620(a1) # 1d94 <pixel_index>
     dc4:	00f70733          	add	a4,a4,a5
     dc8:	00a70023          	sb	a0,0(a4)
     dcc:	00178793          	addi	a5,a5,1
     dd0:	fed796e3          	bne	a5,a3,dbc <init_snake+0x98>
     dd4:	14078693          	addi	a3,a5,320
     dd8:	ff0690e3          	bne	a3,a6,db8 <init_snake+0x94>
     ddc:	001e8e93          	addi	t4,t4,1
     de0:	028f0f13          	addi	t5,t5,40
     de4:	fa7e9ee3          	bne	t4,t2,da0 <init_snake+0x7c>
     de8:	001e0e13          	addi	t3,t3,1
     dec:	006f8fb3          	add	t6,t6,t1
     df0:	fa5e12e3          	bne	t3,t0,d94 <init_snake+0x70>
     df4:	0008a683          	lw	a3,0(a7)
     df8:	0048a503          	lw	a0,4(a7)
     dfc:	00003737          	lui	a4,0x3
     e00:	026686b3          	mul	a3,a3,t1
     e04:	00251793          	slli	a5,a0,0x2
     e08:	00a787b3          	add	a5,a5,a0
     e0c:	00379793          	slli	a5,a5,0x3
     e10:	22870713          	addi	a4,a4,552 # 3228 <__global_pointer+0x12b3>
     e14:	04500513          	li	a0,69
     e18:	00d787b3          	add	a5,a5,a3
     e1c:	02878693          	addi	a3,a5,40
     e20:	00e78833          	add	a6,a5,a4
     e24:	fd868793          	addi	a5,a3,-40
     e28:	77862703          	lw	a4,1912(a2)
     e2c:	d8f5aa23          	sw	a5,-620(a1)
     e30:	00f70733          	add	a4,a4,a5
     e34:	00a70023          	sb	a0,0(a4)
     e38:	00178793          	addi	a5,a5,1
     e3c:	fed796e3          	bne	a5,a3,e28 <init_snake+0x104>
     e40:	14078693          	addi	a3,a5,320
     e44:	ff0690e3          	bne	a3,a6,e24 <init_snake+0x100>
     e48:	0088a683          	lw	a3,8(a7)
     e4c:	000037b7          	lui	a5,0x3
     e50:	20078793          	addi	a5,a5,512 # 3200 <__global_pointer+0x128b>
     e54:	02f686b3          	mul	a3,a3,a5
     e58:	00c8a503          	lw	a0,12(a7)
     e5c:	00003737          	lui	a4,0x3
     e60:	22870713          	addi	a4,a4,552 # 3228 <__global_pointer+0x12b3>
     e64:	00251793          	slli	a5,a0,0x2
     e68:	00a787b3          	add	a5,a5,a0
     e6c:	00379793          	slli	a5,a5,0x3
     e70:	fff00513          	li	a0,-1
     e74:	00d787b3          	add	a5,a5,a3
     e78:	02878693          	addi	a3,a5,40
     e7c:	00e78833          	add	a6,a5,a4
     e80:	fd868793          	addi	a5,a3,-40
     e84:	77862703          	lw	a4,1912(a2)
     e88:	d8f5aa23          	sw	a5,-620(a1)
     e8c:	00f70733          	add	a4,a4,a5
     e90:	00a70023          	sb	a0,0(a4)
     e94:	00178793          	addi	a5,a5,1
     e98:	fed796e3          	bne	a5,a3,e84 <init_snake+0x160>
     e9c:	14078693          	addi	a3,a5,320
     ea0:	ff0690e3          	bne	a3,a6,e80 <init_snake+0x15c>
     ea4:	0108a683          	lw	a3,16(a7)
     ea8:	000037b7          	lui	a5,0x3
     eac:	20078793          	addi	a5,a5,512 # 3200 <__global_pointer+0x128b>
     eb0:	02f686b3          	mul	a3,a3,a5
     eb4:	0148a503          	lw	a0,20(a7)
     eb8:	00003737          	lui	a4,0x3
     ebc:	22870713          	addi	a4,a4,552 # 3228 <__global_pointer+0x12b3>
     ec0:	00251793          	slli	a5,a0,0x2
     ec4:	00a787b3          	add	a5,a5,a0
     ec8:	00379793          	slli	a5,a5,0x3
     ecc:	fff00513          	li	a0,-1
     ed0:	00d787b3          	add	a5,a5,a3
     ed4:	02878693          	addi	a3,a5,40
     ed8:	00e78833          	add	a6,a5,a4
     edc:	fd868793          	addi	a5,a3,-40
     ee0:	77862703          	lw	a4,1912(a2)
     ee4:	d8f5aa23          	sw	a5,-620(a1)
     ee8:	00f70733          	add	a4,a4,a5
     eec:	00a70023          	sb	a0,0(a4)
     ef0:	00178793          	addi	a5,a5,1
     ef4:	fef696e3          	bne	a3,a5,ee0 <init_snake+0x1bc>
     ef8:	14068693          	addi	a3,a3,320
     efc:	fed810e3          	bne	a6,a3,edc <init_snake+0x1b8>
     f00:	839ff06f          	j	738 <spawn_food>

00000f04 <labinit>:
     f04:	04000737          	lui	a4,0x4000
     f08:	ffffc637          	lui	a2,0xffffc
     f0c:	0e072223          	sw	zero,228(a4) # 40000e4 <_stack_end+0x3efe1cc>
     f10:	040007b7          	lui	a5,0x4000
     f14:	6bf60613          	addi	a2,a2,1727 # ffffc6bf <_stack_end+0xffefa7a7>
     f18:	02c79423          	sh	a2,40(a5) # 4000028 <_stack_end+0x3efe110>
     f1c:	040006b7          	lui	a3,0x4000
     f20:	02d00613          	li	a2,45
     f24:	040007b7          	lui	a5,0x4000
     f28:	02c69623          	sh	a2,44(a3) # 400002c <_stack_end+0x3efe114>
     f2c:	00700713          	li	a4,7
     f30:	02e79223          	sh	a4,36(a5) # 4000024 <_stack_end+0x3efe10c>
     f34:	30486073          	csrsi	mie,16
     f38:	3001e073          	csrsi	mstatus,3
     f3c:	00008067          	ret

00000f40 <main>:
     f40:	fc010113          	addi	sp,sp,-64
     f44:	02112e23          	sw	ra,60(sp)
     f48:	02812c23          	sw	s0,56(sp)
     f4c:	02912a23          	sw	s1,52(sp)
     f50:	03212823          	sw	s2,48(sp)
     f54:	03312623          	sw	s3,44(sp)
     f58:	03412423          	sw	s4,40(sp)
     f5c:	03512223          	sw	s5,36(sp)
     f60:	03612023          	sw	s6,32(sp)
     f64:	01712e23          	sw	s7,28(sp)
     f68:	01812c23          	sw	s8,24(sp)
     f6c:	01912a23          	sw	s9,20(sp)
     f70:	01a12823          	sw	s10,16(sp)
     f74:	01b12623          	sw	s11,12(sp)
     f78:	04000737          	lui	a4,0x4000
     f7c:	ffffc637          	lui	a2,0xffffc
     f80:	0e072223          	sw	zero,228(a4) # 40000e4 <_stack_end+0x3efe1cc>
     f84:	040007b7          	lui	a5,0x4000
     f88:	6bf60613          	addi	a2,a2,1727 # ffffc6bf <_stack_end+0xffefa7a7>
     f8c:	02c79423          	sh	a2,40(a5) # 4000028 <_stack_end+0x3efe110>
     f90:	040006b7          	lui	a3,0x4000
     f94:	02d00613          	li	a2,45
     f98:	040007b7          	lui	a5,0x4000
     f9c:	02c69623          	sh	a2,44(a3) # 400002c <_stack_end+0x3efe114>
     fa0:	00700713          	li	a4,7
     fa4:	02e79223          	sh	a4,36(a5) # 4000024 <_stack_end+0x3efe10c>
     fa8:	30486073          	csrsi	mie,16
     fac:	3001e073          	csrsi	mstatus,3
     fb0:	04000437          	lui	s0,0x4000
     fb4:	04000bb7          	lui	s7,0x4000
     fb8:	d6dff0ef          	jal	d24 <init_snake>
     fbc:	00000d13          	li	s10,0
     fc0:	00000c93          	li	s9,0
     fc4:	00001db7          	lui	s11,0x1
     fc8:	00001c37          	lui	s8,0x1
     fcc:	00002b37          	lui	s6,0x2
     fd0:	00002ab7          	lui	s5,0x2
     fd4:	00002a37          	lui	s4,0x2
     fd8:	08500993          	li	s3,133
     fdc:	00100913          	li	s2,1
     fe0:	11500493          	li	s1,277
     fe4:	0d040413          	addi	s0,s0,208 # 40000d0 <_stack_end+0x3efe1b8>
     fe8:	0e0b8b93          	addi	s7,s7,224 # 40000e0 <_stack_end+0x3efe1c8>
     fec:	780da783          	lw	a5,1920(s11) # 1780 <random_number1>
     ff0:	77cc2683          	lw	a3,1916(s8) # 177c <random_number2>
     ff4:	00178793          	addi	a5,a5,1
     ff8:	00168713          	addi	a4,a3,1
     ffc:	78fda023          	sw	a5,1920(s11)
    1000:	76ec2e23          	sw	a4,1916(s8)
    1004:	00f9d863          	bge	s3,a5,1014 <main+0xd4>
    1008:	00268713          	addi	a4,a3,2
    100c:	792da023          	sw	s2,1920(s11)
    1010:	76ec2e23          	sw	a4,1916(s8)
    1014:	00e4d463          	bge	s1,a4,101c <main+0xdc>
    1018:	772c2e23          	sw	s2,1916(s8)
    101c:	00042783          	lw	a5,0(s0)
    1020:	0017f793          	andi	a5,a5,1
    1024:	0a079863          	bnez	a5,10d4 <main+0x194>
    1028:	000ba783          	lw	a5,0(s7)
    102c:	0017f793          	andi	a5,a5,1
    1030:	0197e7b3          	or	a5,a5,s9
    1034:	06079463          	bnez	a5,109c <main+0x15c>
    1038:	db8aa783          	lw	a5,-584(s5) # 1db8 <direction>
    103c:	00100c93          	li	s9,1
    1040:	00378793          	addi	a5,a5,3
    1044:	41f7d713          	srai	a4,a5,0x1f
    1048:	01e75713          	srli	a4,a4,0x1e
    104c:	00e787b3          	add	a5,a5,a4
    1050:	0037f793          	andi	a5,a5,3
    1054:	40e787b3          	sub	a5,a5,a4
    1058:	dafa2a23          	sw	a5,-588(s4) # 1db4 <new_direction>
    105c:	000ba783          	lw	a5,0(s7)
    1060:	0027f793          	andi	a5,a5,2
    1064:	01a7e7b3          	or	a5,a5,s10
    1068:	04079a63          	bnez	a5,10bc <main+0x17c>
    106c:	db8aa783          	lw	a5,-584(s5)
    1070:	00100d13          	li	s10,1
    1074:	00178793          	addi	a5,a5,1
    1078:	41f7d713          	srai	a4,a5,0x1f
    107c:	01e75713          	srli	a4,a4,0x1e
    1080:	00e787b3          	add	a5,a5,a4
    1084:	0037f793          	andi	a5,a5,3
    1088:	40e787b3          	sub	a5,a5,a4
    108c:	dafa2a23          	sw	a5,-588(s4)
    1090:	00a00513          	li	a0,10
    1094:	540000ef          	jal	15d4 <delay>
    1098:	f55ff06f          	j	fec <main+0xac>
    109c:	000ba783          	lw	a5,0(s7)
    10a0:	0017f793          	andi	a5,a5,1
    10a4:	fff78793          	addi	a5,a5,-1
    10a8:	00fcfcb3          	and	s9,s9,a5
    10ac:	000ba783          	lw	a5,0(s7)
    10b0:	0027f793          	andi	a5,a5,2
    10b4:	01a7e7b3          	or	a5,a5,s10
    10b8:	fa078ae3          	beqz	a5,106c <main+0x12c>
    10bc:	000ba783          	lw	a5,0(s7)
    10c0:	0027f793          	andi	a5,a5,2
    10c4:	0017b793          	seqz	a5,a5
    10c8:	40f007b3          	neg	a5,a5
    10cc:	00fd7d33          	and	s10,s10,a5
    10d0:	fc1ff06f          	j	1090 <main+0x150>
    10d4:	d80b2c23          	sw	zero,-616(s6) # 1d98 <gameover>
    10d8:	c4dff0ef          	jal	d24 <init_snake>
    10dc:	f4dff06f          	j	1028 <main+0xe8>

000010e0 <printc>:
    10e0:	04000737          	lui	a4,0x4000
    10e4:	04470713          	addi	a4,a4,68 # 4000044 <_stack_end+0x3efe12c>
    10e8:	000106b7          	lui	a3,0x10
    10ec:	00072783          	lw	a5,0(a4)
    10f0:	fed7eee3          	bltu	a5,a3,10ec <printc+0xc>
    10f4:	040007b7          	lui	a5,0x4000
    10f8:	04a7a023          	sw	a0,64(a5) # 4000040 <_stack_end+0x3efe128>
    10fc:	00008067          	ret

00001100 <print>:
    1100:	00054603          	lbu	a2,0(a0)
    1104:	02060863          	beqz	a2,1134 <print+0x34>
    1108:	04000737          	lui	a4,0x4000
    110c:	040005b7          	lui	a1,0x4000
    1110:	04470713          	addi	a4,a4,68 # 4000044 <_stack_end+0x3efe12c>
    1114:	000106b7          	lui	a3,0x10
    1118:	04058593          	addi	a1,a1,64 # 4000040 <_stack_end+0x3efe128>
    111c:	00072783          	lw	a5,0(a4)
    1120:	fed7eee3          	bltu	a5,a3,111c <print+0x1c>
    1124:	00c5a023          	sw	a2,0(a1)
    1128:	00154603          	lbu	a2,1(a0)
    112c:	00150513          	addi	a0,a0,1
    1130:	fe0616e3          	bnez	a2,111c <print+0x1c>
    1134:	00008067          	ret

00001138 <print_dec>:
    1138:	3b9ad737          	lui	a4,0x3b9ad
    113c:	040006b7          	lui	a3,0x4000
    1140:	04000337          	lui	t1,0x4000
    1144:	00a00593          	li	a1,10
    1148:	00000793          	li	a5,0
    114c:	a0070713          	addi	a4,a4,-1536 # 3b9aca00 <_stack_end+0x3b8aaae8>
    1150:	04468693          	addi	a3,a3,68 # 4000044 <_stack_end+0x3efe12c>
    1154:	00010637          	lui	a2,0x10
    1158:	04030313          	addi	t1,t1,64 # 4000040 <_stack_end+0x3efe128>
    115c:	00a00893          	li	a7,10
    1160:	04e57063          	bgeu	a0,a4,11a0 <print_dec+0x68>
    1164:	02079e63          	bnez	a5,11a0 <print_dec+0x68>
    1168:	fff58593          	addi	a1,a1,-1
    116c:	02e57533          	remu	a0,a0,a4
    1170:	03175733          	divu	a4,a4,a7
    1174:	fe0596e3          	bnez	a1,1160 <print_dec+0x28>
    1178:	02079263          	bnez	a5,119c <print_dec+0x64>
    117c:	04000737          	lui	a4,0x4000
    1180:	04470713          	addi	a4,a4,68 # 4000044 <_stack_end+0x3efe12c>
    1184:	000106b7          	lui	a3,0x10
    1188:	00072783          	lw	a5,0(a4)
    118c:	fed7eee3          	bltu	a5,a3,1188 <print_dec+0x50>
    1190:	040007b7          	lui	a5,0x4000
    1194:	03000713          	li	a4,48
    1198:	04e7a023          	sw	a4,64(a5) # 4000040 <_stack_end+0x3efe128>
    119c:	00008067          	ret
    11a0:	02e55833          	divu	a6,a0,a4
    11a4:	03080813          	addi	a6,a6,48
    11a8:	0ff87813          	zext.b	a6,a6
    11ac:	0006a783          	lw	a5,0(a3) # 10000 <__global_pointer+0xe08b>
    11b0:	fec7eee3          	bltu	a5,a2,11ac <print_dec+0x74>
    11b4:	01032023          	sw	a6,0(t1)
    11b8:	00100793          	li	a5,1
    11bc:	fadff06f          	j	1168 <print_dec+0x30>

000011c0 <print_hex32>:
    11c0:	04000737          	lui	a4,0x4000
    11c4:	04470713          	addi	a4,a4,68 # 4000044 <_stack_end+0x3efe12c>
    11c8:	000106b7          	lui	a3,0x10
    11cc:	00072783          	lw	a5,0(a4)
    11d0:	fed7eee3          	bltu	a5,a3,11cc <print_hex32+0xc>
    11d4:	03000693          	li	a3,48
    11d8:	040007b7          	lui	a5,0x4000
    11dc:	04000737          	lui	a4,0x4000
    11e0:	04d7a023          	sw	a3,64(a5) # 4000040 <_stack_end+0x3efe128>
    11e4:	04470713          	addi	a4,a4,68 # 4000044 <_stack_end+0x3efe12c>
    11e8:	000106b7          	lui	a3,0x10
    11ec:	00072783          	lw	a5,0(a4)
    11f0:	fed7eee3          	bltu	a5,a3,11ec <print_hex32+0x2c>
    11f4:	04000837          	lui	a6,0x4000
    11f8:	04080813          	addi	a6,a6,64 # 4000040 <_stack_end+0x3efe128>
    11fc:	04000737          	lui	a4,0x4000
    1200:	07800793          	li	a5,120
    1204:	00f82023          	sw	a5,0(a6)
    1208:	01c00613          	li	a2,28
    120c:	00900313          	li	t1,9
    1210:	04470713          	addi	a4,a4,68 # 4000044 <_stack_end+0x3efe12c>
    1214:	000106b7          	lui	a3,0x10
    1218:	ffc00893          	li	a7,-4
    121c:	00c557b3          	srl	a5,a0,a2
    1220:	00f7f793          	andi	a5,a5,15
    1224:	03778593          	addi	a1,a5,55
    1228:	00f36463          	bltu	t1,a5,1230 <print_hex32+0x70>
    122c:	03078593          	addi	a1,a5,48
    1230:	00072783          	lw	a5,0(a4)
    1234:	fed7eee3          	bltu	a5,a3,1230 <print_hex32+0x70>
    1238:	00b82023          	sw	a1,0(a6)
    123c:	ffc60613          	addi	a2,a2,-4 # fffc <__global_pointer+0xe087>
    1240:	fd161ee3          	bne	a2,a7,121c <print_hex32+0x5c>
    1244:	00008067          	ret

00001248 <handle_exception>:
    1248:	00200793          	li	a5,2
    124c:	18f80863          	beq	a6,a5,13dc <handle_exception+0x194>
    1250:	00b00793          	li	a5,11
    1254:	12f80063          	beq	a6,a5,1374 <handle_exception+0x12c>
    1258:	04000737          	lui	a4,0x4000
    125c:	14081463          	bnez	a6,13a4 <handle_exception+0x15c>
    1260:	04000837          	lui	a6,0x4000
    1264:	00002637          	lui	a2,0x2
    1268:	e9060613          	addi	a2,a2,-368 # 1e90 <snakespeed+0x4>
    126c:	00a00593          	li	a1,10
    1270:	04470713          	addi	a4,a4,68 # 4000044 <_stack_end+0x3efe12c>
    1274:	000106b7          	lui	a3,0x10
    1278:	04080813          	addi	a6,a6,64 # 4000040 <_stack_end+0x3efe128>
    127c:	00072783          	lw	a5,0(a4)
    1280:	fed7eee3          	bltu	a5,a3,127c <handle_exception+0x34>
    1284:	00b82023          	sw	a1,0(a6)
    1288:	00164583          	lbu	a1,1(a2)
    128c:	00160613          	addi	a2,a2,1
    1290:	fe0596e3          	bnez	a1,127c <handle_exception+0x34>
    1294:	04000737          	lui	a4,0x4000
    1298:	04000837          	lui	a6,0x4000
    129c:	00002637          	lui	a2,0x2
    12a0:	f0460613          	addi	a2,a2,-252 # 1f04 <snakespeed+0x78>
    12a4:	04500593          	li	a1,69
    12a8:	04470713          	addi	a4,a4,68 # 4000044 <_stack_end+0x3efe12c>
    12ac:	000106b7          	lui	a3,0x10
    12b0:	04080813          	addi	a6,a6,64 # 4000040 <_stack_end+0x3efe128>
    12b4:	00072783          	lw	a5,0(a4)
    12b8:	fed7eee3          	bltu	a5,a3,12b4 <handle_exception+0x6c>
    12bc:	00b82023          	sw	a1,0(a6)
    12c0:	00164583          	lbu	a1,1(a2)
    12c4:	00160613          	addi	a2,a2,1
    12c8:	fe0596e3          	bnez	a1,12b4 <handle_exception+0x6c>
    12cc:	04000737          	lui	a4,0x4000
    12d0:	04470713          	addi	a4,a4,68 # 4000044 <_stack_end+0x3efe12c>
    12d4:	000106b7          	lui	a3,0x10
    12d8:	00072783          	lw	a5,0(a4)
    12dc:	fed7eee3          	bltu	a5,a3,12d8 <handle_exception+0x90>
    12e0:	03000693          	li	a3,48
    12e4:	040007b7          	lui	a5,0x4000
    12e8:	04000737          	lui	a4,0x4000
    12ec:	04d7a023          	sw	a3,64(a5) # 4000040 <_stack_end+0x3efe128>
    12f0:	04470713          	addi	a4,a4,68 # 4000044 <_stack_end+0x3efe12c>
    12f4:	000106b7          	lui	a3,0x10
    12f8:	00072783          	lw	a5,0(a4)
    12fc:	fed7eee3          	bltu	a5,a3,12f8 <handle_exception+0xb0>
    1300:	04000837          	lui	a6,0x4000
    1304:	04080813          	addi	a6,a6,64 # 4000040 <_stack_end+0x3efe128>
    1308:	04000737          	lui	a4,0x4000
    130c:	07800793          	li	a5,120
    1310:	00f82023          	sw	a5,0(a6)
    1314:	01c00613          	li	a2,28
    1318:	00900313          	li	t1,9
    131c:	04470713          	addi	a4,a4,68 # 4000044 <_stack_end+0x3efe12c>
    1320:	000106b7          	lui	a3,0x10
    1324:	ffc00893          	li	a7,-4
    1328:	00c557b3          	srl	a5,a0,a2
    132c:	00f7f793          	andi	a5,a5,15
    1330:	03778593          	addi	a1,a5,55
    1334:	00f36463          	bltu	t1,a5,133c <handle_exception+0xf4>
    1338:	03078593          	addi	a1,a5,48
    133c:	00072783          	lw	a5,0(a4)
    1340:	fed7eee3          	bltu	a5,a3,133c <handle_exception+0xf4>
    1344:	00b82023          	sw	a1,0(a6)
    1348:	ffc60613          	addi	a2,a2,-4
    134c:	fd161ee3          	bne	a2,a7,1328 <handle_exception+0xe0>
    1350:	04000737          	lui	a4,0x4000
    1354:	04470713          	addi	a4,a4,68 # 4000044 <_stack_end+0x3efe12c>
    1358:	000106b7          	lui	a3,0x10
    135c:	00072783          	lw	a5,0(a4)
    1360:	fed7eee3          	bltu	a5,a3,135c <handle_exception+0x114>
    1364:	040007b7          	lui	a5,0x4000
    1368:	00a00713          	li	a4,10
    136c:	04e7a023          	sw	a4,64(a5) # 4000040 <_stack_end+0x3efe128>
    1370:	0000006f          	j	1370 <handle_exception+0x128>
    1374:	00400793          	li	a5,4
    1378:	0af88063          	beq	a7,a5,1418 <handle_exception+0x1d0>
    137c:	0d089a63          	bne	a7,a6,1450 <handle_exception+0x208>
    1380:	04000737          	lui	a4,0x4000
    1384:	04470713          	addi	a4,a4,68 # 4000044 <_stack_end+0x3efe12c>
    1388:	000106b7          	lui	a3,0x10
    138c:	00072783          	lw	a5,0(a4)
    1390:	fed7eee3          	bltu	a5,a3,138c <handle_exception+0x144>
    1394:	040007b7          	lui	a5,0x4000
    1398:	0ff57513          	zext.b	a0,a0
    139c:	04a7a023          	sw	a0,64(a5) # 4000040 <_stack_end+0x3efe128>
    13a0:	00008067          	ret
    13a4:	04000837          	lui	a6,0x4000
    13a8:	00002637          	lui	a2,0x2
    13ac:	ee460613          	addi	a2,a2,-284 # 1ee4 <snakespeed+0x58>
    13b0:	00a00593          	li	a1,10
    13b4:	04470713          	addi	a4,a4,68
    13b8:	000106b7          	lui	a3,0x10
    13bc:	04080813          	addi	a6,a6,64 # 4000040 <_stack_end+0x3efe128>
    13c0:	00072783          	lw	a5,0(a4)
    13c4:	fed7eee3          	bltu	a5,a3,13c0 <handle_exception+0x178>
    13c8:	00b82023          	sw	a1,0(a6)
    13cc:	00164583          	lbu	a1,1(a2)
    13d0:	00160613          	addi	a2,a2,1
    13d4:	fe0596e3          	bnez	a1,13c0 <handle_exception+0x178>
    13d8:	ebdff06f          	j	1294 <handle_exception+0x4c>
    13dc:	04000737          	lui	a4,0x4000
    13e0:	04000837          	lui	a6,0x4000
    13e4:	00002637          	lui	a2,0x2
    13e8:	ec060613          	addi	a2,a2,-320 # 1ec0 <snakespeed+0x34>
    13ec:	00a00593          	li	a1,10
    13f0:	04470713          	addi	a4,a4,68 # 4000044 <_stack_end+0x3efe12c>
    13f4:	000106b7          	lui	a3,0x10
    13f8:	04080813          	addi	a6,a6,64 # 4000040 <_stack_end+0x3efe128>
    13fc:	00072783          	lw	a5,0(a4)
    1400:	fed7eee3          	bltu	a5,a3,13fc <handle_exception+0x1b4>
    1404:	00b82023          	sw	a1,0(a6)
    1408:	00164583          	lbu	a1,1(a2)
    140c:	00160613          	addi	a2,a2,1
    1410:	fe0596e3          	bnez	a1,13fc <handle_exception+0x1b4>
    1414:	e81ff06f          	j	1294 <handle_exception+0x4c>
    1418:	00054603          	lbu	a2,0(a0)
    141c:	02060a63          	beqz	a2,1450 <handle_exception+0x208>
    1420:	04000737          	lui	a4,0x4000
    1424:	040005b7          	lui	a1,0x4000
    1428:	04470713          	addi	a4,a4,68 # 4000044 <_stack_end+0x3efe12c>
    142c:	000106b7          	lui	a3,0x10
    1430:	04058593          	addi	a1,a1,64 # 4000040 <_stack_end+0x3efe128>
    1434:	00072783          	lw	a5,0(a4)
    1438:	fed7eee3          	bltu	a5,a3,1434 <handle_exception+0x1ec>
    143c:	00c5a023          	sw	a2,0(a1)
    1440:	00154603          	lbu	a2,1(a0)
    1444:	00150513          	addi	a0,a0,1
    1448:	fe0616e3          	bnez	a2,1434 <handle_exception+0x1ec>
    144c:	00008067          	ret
    1450:	00008067          	ret

00001454 <nextprime>:
    1454:	00200713          	li	a4,2
    1458:	00050793          	mv	a5,a0
    145c:	02a74063          	blt	a4,a0,147c <nextprime+0x28>
    1460:	00100513          	li	a0,1
    1464:	00f05a63          	blez	a5,1478 <nextprime+0x24>
    1468:	fff78793          	addi	a5,a5,-1
    146c:	00f037b3          	snez	a5,a5
    1470:	00278513          	addi	a0,a5,2
    1474:	00008067          	ret
    1478:	00008067          	ret
    147c:	00150793          	addi	a5,a0,1
    1480:	0017e513          	ori	a0,a5,1
    1484:	00300613          	li	a2,3
    1488:	02c567b3          	rem	a5,a0,a2
    148c:	40155693          	srai	a3,a0,0x1
    1490:	02078263          	beqz	a5,14b4 <nextprime+0x60>
    1494:	00268693          	addi	a3,a3,2 # 10002 <__global_pointer+0xe08d>
    1498:	00300793          	li	a5,3
    149c:	00c0006f          	j	14a8 <nextprime+0x54>
    14a0:	02f56733          	rem	a4,a0,a5
    14a4:	00070863          	beqz	a4,14b4 <nextprime+0x60>
    14a8:	00178793          	addi	a5,a5,1
    14ac:	fef69ae3          	bne	a3,a5,14a0 <nextprime+0x4c>
    14b0:	00008067          	ret
    14b4:	00250513          	addi	a0,a0,2
    14b8:	fd1ff06f          	j	1488 <nextprime+0x34>

000014bc <display_string>:
    14bc:	00400893          	li	a7,4
    14c0:	00000073          	ecall
    14c4:	00a00513          	li	a0,10
    14c8:	00b00893          	li	a7,11
    14cc:	00000073          	ecall
    14d0:	00008067          	ret

000014d4 <timetemplate>:
    14d4:	00000517          	auipc	a0,0x0
    14d8:	28450513          	addi	a0,a0,644 # 1758 <timstr>
    14dc:	fe1ff0ef          	jal	14bc <display_string>
    14e0:	3e800513          	li	a0,1000
    14e4:	0f0000ef          	jal	15d4 <delay>
    14e8:	00000517          	auipc	a0,0x0
    14ec:	26c50513          	addi	a0,a0,620 # 1754 <mytime>
    14f0:	020000ef          	jal	1510 <tick>
    14f4:	00000517          	auipc	a0,0x0
    14f8:	26450513          	addi	a0,a0,612 # 1758 <timstr>
    14fc:	00000297          	auipc	t0,0x0
    1500:	25828293          	addi	t0,t0,600 # 1754 <mytime>
    1504:	0002a583          	lw	a1,0(t0)
    1508:	0f0000ef          	jal	15f8 <time2string>
    150c:	fc9ff06f          	j	14d4 <timetemplate>

00001510 <tick>:
    1510:	00052283          	lw	t0,0(a0)
    1514:	00128293          	addi	t0,t0,1
    1518:	00f2f313          	andi	t1,t0,15
    151c:	00a33393          	sltiu	t2,t1,10
    1520:	06039063          	bnez	t2,1580 <tiend>
    1524:	00628293          	addi	t0,t0,6
    1528:	0f02f313          	andi	t1,t0,240
    152c:	06033393          	sltiu	t2,t1,96
    1530:	04039863          	bnez	t2,1580 <tiend>
    1534:	0a028293          	addi	t0,t0,160
    1538:	00f00e13          	li	t3,15
    153c:	008e1e13          	slli	t3,t3,0x8
    1540:	01c2f333          	and	t1,t0,t3
    1544:	00a00e13          	li	t3,10
    1548:	008e1e13          	slli	t3,t3,0x8
    154c:	01c323b3          	slt	t2,t1,t3
    1550:	02039863          	bnez	t2,1580 <tiend>
    1554:	60028293          	addi	t0,t0,1536
    1558:	00f00e13          	li	t3,15
    155c:	00ce1e13          	slli	t3,t3,0xc
    1560:	01c2f333          	and	t1,t0,t3
    1564:	00600e13          	li	t3,6
    1568:	00ce1e13          	slli	t3,t3,0xc
    156c:	01c323b3          	slt	t2,t1,t3
    1570:	00039863          	bnez	t2,1580 <tiend>
    1574:	00a00e13          	li	t3,10
    1578:	00ce1e13          	slli	t3,t3,0xc
    157c:	01c282b3          	add	t0,t0,t3

00001580 <tiend>:
    1580:	00552023          	sw	t0,0(a0)
    1584:	00008067          	ret

00001588 <hex2asc>:
    1588:	00400513          	li	a0,4
    158c:	ffc10113          	addi	sp,sp,-4
    1590:	00112023          	sw	ra,0(sp)
    1594:	018000ef          	jal	15ac <hexasc>
    1598:	00b00893          	li	a7,11
    159c:	00000073          	ecall
    15a0:	00012083          	lw	ra,0(sp)
    15a4:	00410113          	addi	sp,sp,4
    15a8:	00008067          	ret

000015ac <hexasc>:
    15ac:	00f57513          	andi	a0,a0,15
    15b0:	00a00293          	li	t0,10
    15b4:	00554863          	blt	a0,t0,15c4 <digit>
    15b8:	03700293          	li	t0,55
    15bc:	00550533          	add	a0,a0,t0
    15c0:	00c0006f          	j	15cc <done>

000015c4 <digit>:
    15c4:	03000293          	li	t0,48
    15c8:	00550533          	add	a0,a0,t0

000015cc <done>:
    15cc:	07f57513          	andi	a0,a0,127
    15d0:	00008067          	ret

000015d4 <delay>:
    15d4:	00050293          	mv	t0,a0

000015d8 <delay_while>:
    15d8:	00505e63          	blez	t0,15f4 <delay_end>
    15dc:	fff28293          	addi	t0,t0,-1
    15e0:	00004337          	lui	t1,0x4
    15e4:	a9830313          	addi	t1,t1,-1384 # 3a98 <__global_pointer+0x1b23>

000015e8 <delay_for>:
    15e8:	fff30313          	addi	t1,t1,-1
    15ec:	fe031ee3          	bnez	t1,15e8 <delay_for>
    15f0:	fe9ff06f          	j	15d8 <delay_while>

000015f4 <delay_end>:
    15f4:	00008067          	ret

000015f8 <time2string>:
    15f8:	ffc10113          	addi	sp,sp,-4
    15fc:	00112023          	sw	ra,0(sp)
    1600:	ffc10113          	addi	sp,sp,-4
    1604:	00912023          	sw	s1,0(sp)
    1608:	0085d493          	srli	s1,a1,0x8
    160c:	0ff4f493          	zext.b	s1,s1
    1610:	ffc10113          	addi	sp,sp,-4
    1614:	00a12023          	sw	a0,0(sp)
    1618:	0044d513          	srli	a0,s1,0x4
    161c:	00f57513          	andi	a0,a0,15
    1620:	f8dff0ef          	jal	15ac <hexasc>
    1624:	00050393          	mv	t2,a0
    1628:	00012503          	lw	a0,0(sp)
    162c:	00410113          	addi	sp,sp,4
    1630:	00750023          	sb	t2,0(a0)
    1634:	ffc10113          	addi	sp,sp,-4
    1638:	00a12023          	sw	a0,0(sp)
    163c:	00f4f513          	andi	a0,s1,15
    1640:	f6dff0ef          	jal	15ac <hexasc>
    1644:	00050393          	mv	t2,a0
    1648:	00012503          	lw	a0,0(sp)
    164c:	00410113          	addi	sp,sp,4
    1650:	007500a3          	sb	t2,1(a0)
    1654:	03a00e93          	li	t4,58
    1658:	01d50123          	sb	t4,2(a0)
    165c:	0ff5f493          	zext.b	s1,a1
    1660:	ffc10113          	addi	sp,sp,-4
    1664:	00a12023          	sw	a0,0(sp)
    1668:	0044d513          	srli	a0,s1,0x4
    166c:	00f57513          	andi	a0,a0,15
    1670:	f3dff0ef          	jal	15ac <hexasc>
    1674:	00050393          	mv	t2,a0
    1678:	00012503          	lw	a0,0(sp)
    167c:	00410113          	addi	sp,sp,4
    1680:	007501a3          	sb	t2,3(a0)
    1684:	ffc10113          	addi	sp,sp,-4
    1688:	00a12023          	sw	a0,0(sp)
    168c:	00f4f513          	andi	a0,s1,15
    1690:	f1dff0ef          	jal	15ac <hexasc>
    1694:	00050393          	mv	t2,a0
    1698:	00012503          	lw	a0,0(sp)
    169c:	00410113          	addi	sp,sp,4
    16a0:	00750223          	sb	t2,4(a0)
    16a4:	00000e93          	li	t4,0
    16a8:	01d502a3          	sb	t4,5(a0)
    16ac:	00012483          	lw	s1,0(sp)
    16b0:	00410113          	addi	sp,sp,4
    16b4:	00012083          	lw	ra,0(sp)
    16b8:	00410113          	addi	sp,sp,4
    16bc:	00008067          	ret

Disassembly of section .data:

000016c0 <welcome_msg>:
    16c0:	3d3d                	.insn	2, 0x3d3d
    16c2:	3d3d                	.insn	2, 0x3d3d
    16c4:	3d3d                	.insn	2, 0x3d3d
    16c6:	3d3d                	.insn	2, 0x3d3d
    16c8:	3d3d                	.insn	2, 0x3d3d
    16ca:	3d3d                	.insn	2, 0x3d3d
    16cc:	3d3d                	.insn	2, 0x3d3d
    16ce:	3d3d                	.insn	2, 0x3d3d
    16d0:	3d3d                	.insn	2, 0x3d3d
    16d2:	3d3d                	.insn	2, 0x3d3d
    16d4:	3d3d                	.insn	2, 0x3d3d
    16d6:	3d3d                	.insn	2, 0x3d3d
    16d8:	3d3d                	.insn	2, 0x3d3d
    16da:	3d3d                	.insn	2, 0x3d3d
    16dc:	3d3d                	.insn	2, 0x3d3d
    16de:	3d3d                	.insn	2, 0x3d3d
    16e0:	3d3d                	.insn	2, 0x3d3d
    16e2:	3d3d                	.insn	2, 0x3d3d
    16e4:	3d3d                	.insn	2, 0x3d3d
    16e6:	3d3d                	.insn	2, 0x3d3d
    16e8:	3d3d                	.insn	2, 0x3d3d
    16ea:	3d3d                	.insn	2, 0x3d3d
    16ec:	3d3d                	.insn	2, 0x3d3d
    16ee:	3d3d                	.insn	2, 0x3d3d
    16f0:	3d0a                	.insn	2, 0x3d0a
    16f2:	3d3d                	.insn	2, 0x3d3d
    16f4:	3d3d                	.insn	2, 0x3d3d
    16f6:	5220                	.insn	2, 0x5220
    16f8:	5349                	.insn	2, 0x5349
    16fa:	20562d43          	.insn	4, 0x20562d43
    16fe:	6f42                	.insn	2, 0x6f42
    1700:	552d746f          	jal	s0,d8c52 <__global_pointer+0xd6cdd>
    1704:	2070                	.insn	2, 0x2070
    1706:	7250                	.insn	2, 0x7250
    1708:	7365636f          	jal	t1,57e3e <__global_pointer+0x55ec9>
    170c:	6f4e2073          	csrs	0x6f4,t3
    1710:	6f432077          	.insn	4, 0x6f432077
    1714:	706d                	.insn	2, 0x706d
    1716:	656c                	.insn	2, 0x656c
    1718:	6574                	.insn	2, 0x6574
    171a:	3d20                	.insn	2, 0x3d20
    171c:	3d3d                	.insn	2, 0x3d3d
    171e:	3d3d                	.insn	2, 0x3d3d
    1720:	0a3d                	.insn	2, 0x0a3d
    1722:	3d3d                	.insn	2, 0x3d3d
    1724:	3d3d                	.insn	2, 0x3d3d
    1726:	3d3d                	.insn	2, 0x3d3d
    1728:	3d3d                	.insn	2, 0x3d3d
    172a:	3d3d                	.insn	2, 0x3d3d
    172c:	3d3d                	.insn	2, 0x3d3d
    172e:	3d3d                	.insn	2, 0x3d3d
    1730:	3d3d                	.insn	2, 0x3d3d
    1732:	3d3d                	.insn	2, 0x3d3d
    1734:	3d3d                	.insn	2, 0x3d3d
    1736:	3d3d                	.insn	2, 0x3d3d
    1738:	3d3d                	.insn	2, 0x3d3d
    173a:	3d3d                	.insn	2, 0x3d3d
    173c:	3d3d                	.insn	2, 0x3d3d
    173e:	3d3d                	.insn	2, 0x3d3d
    1740:	3d3d                	.insn	2, 0x3d3d
    1742:	3d3d                	.insn	2, 0x3d3d
    1744:	3d3d                	.insn	2, 0x3d3d
    1746:	3d3d                	.insn	2, 0x3d3d
    1748:	3d3d                	.insn	2, 0x3d3d
    174a:	3d3d                	.insn	2, 0x3d3d
    174c:	3d3d                	.insn	2, 0x3d3d
    174e:	3d3d                	.insn	2, 0x3d3d
    1750:	3d3d                	.insn	2, 0x3d3d
    1752:	000a                	.insn	2, 0x000a

00001754 <mytime>:
    1754:	00005957          	.insn	4, 0x5957

00001758 <timstr>:
    1758:	6574                	.insn	2, 0x6574
    175a:	7478                	.insn	2, 0x7478
    175c:	6d20                	.insn	2, 0x6d20
    175e:	2065726f          	jal	tp,58964 <__global_pointer+0x569ef>
    1762:	6574                	.insn	2, 0x6574
    1764:	7478                	.insn	2, 0x7478
    1766:	6c20                	.insn	2, 0x6c20
    1768:	2073746f          	jal	s0,3916e <__global_pointer+0x371f9>
    176c:	7420666f          	jal	a2,7eae <__global_pointer+0x5f39>
    1770:	7865                	.insn	2, 0x7865
    1772:	0074                	.insn	2, 0x0074
    1774:	0000                	.insn	2, 0x
	...

00001778 <VGA>:
    1778:	0000                	.insn	2, 0x
    177a:	0800                	.insn	2, 0x0800

0000177c <random_number2>:
    177c:	0006                	.insn	2, 0x0006
	...

00001780 <random_number1>:
    1780:	0001                	.insn	2, 0x0001
	...

00001784 <timeoutcount>:
    1784:	0001                	.insn	2, 0x0001
	...

00001788 <tenth_hour>:
    1788:	0002                	.insn	2, 0x0002
	...

0000178c <hours>:
    178c:	00000003          	lb	zero,0(zero) # 0 <_isr_handler>

00001790 <mytime>:
    1790:	5950                	.insn	2, 0x5950
	...

Disassembly of section .rodata:

00001dbc <.rodata>:
    1dbc:	01c4                	.insn	2, 0x01c4
    1dbe:	0000                	.insn	2, 0x
    1dc0:	01d0                	.insn	2, 0x01d0
    1dc2:	0000                	.insn	2, 0x
    1dc4:	01dc                	.insn	2, 0x01dc
    1dc6:	0000                	.insn	2, 0x
    1dc8:	01e8                	.insn	2, 0x01e8
    1dca:	0000                	.insn	2, 0x
    1dcc:	01f4                	.insn	2, 0x01f4
    1dce:	0000                	.insn	2, 0x
    1dd0:	0200                	.insn	2, 0x0200
    1dd2:	0000                	.insn	2, 0x
    1dd4:	020c                	.insn	2, 0x020c
    1dd6:	0000                	.insn	2, 0x
    1dd8:	0218                	.insn	2, 0x0218
    1dda:	0000                	.insn	2, 0x
    1ddc:	0224                	.insn	2, 0x0224
    1dde:	0000                	.insn	2, 0x
    1de0:	0230                	.insn	2, 0x0230
    1de2:	0000                	.insn	2, 0x
    1de4:	01ac                	.insn	2, 0x01ac
    1de6:	0000                	.insn	2, 0x
    1de8:	01b8                	.insn	2, 0x01b8
    1dea:	0000                	.insn	2, 0x
    1dec:	037c                	.insn	2, 0x037c
    1dee:	0000                	.insn	2, 0x
    1df0:	038c                	.insn	2, 0x038c
    1df2:	0000                	.insn	2, 0x
    1df4:	039c                	.insn	2, 0x039c
    1df6:	0000                	.insn	2, 0x
    1df8:	03ac                	.insn	2, 0x03ac
    1dfa:	0000                	.insn	2, 0x
    1dfc:	03bc                	.insn	2, 0x03bc
    1dfe:	0000                	.insn	2, 0x
    1e00:	03cc                	.insn	2, 0x03cc
    1e02:	0000                	.insn	2, 0x
    1e04:	03dc                	.insn	2, 0x03dc
    1e06:	0000                	.insn	2, 0x
    1e08:	03ec                	.insn	2, 0x03ec
    1e0a:	0000                	.insn	2, 0x
    1e0c:	0270                	.insn	2, 0x0270
    1e0e:	0000                	.insn	2, 0x
    1e10:	036c                	.insn	2, 0x036c
    1e12:	0000                	.insn	2, 0x
    1e14:	034c                	.insn	2, 0x034c
    1e16:	0000                	.insn	2, 0x
    1e18:	033c                	.insn	2, 0x033c
    1e1a:	0000                	.insn	2, 0x
    1e1c:	032c                	.insn	2, 0x032c
    1e1e:	0000                	.insn	2, 0x
    1e20:	031c                	.insn	2, 0x031c
    1e22:	0000                	.insn	2, 0x
    1e24:	02fc                	.insn	2, 0x02fc
    1e26:	0000                	.insn	2, 0x
    1e28:	02ec                	.insn	2, 0x02ec
    1e2a:	0000                	.insn	2, 0x
    1e2c:	030c                	.insn	2, 0x030c
    1e2e:	0000                	.insn	2, 0x
    1e30:	02dc                	.insn	2, 0x02dc
    1e32:	0000                	.insn	2, 0x
    1e34:	02a8                	.insn	2, 0x02a8
    1e36:	0000                	.insn	2, 0x
    1e38:	035c                	.insn	2, 0x035c
    1e3a:	0000                	.insn	2, 0x
    1e3c:	04d0                	.insn	2, 0x04d0
    1e3e:	0000                	.insn	2, 0x
    1e40:	04c0                	.insn	2, 0x04c0
    1e42:	0000                	.insn	2, 0x
    1e44:	04b0                	.insn	2, 0x04b0
    1e46:	0000                	.insn	2, 0x
    1e48:	04a0                	.insn	2, 0x04a0
    1e4a:	0000                	.insn	2, 0x
    1e4c:	0490                	.insn	2, 0x0490
    1e4e:	0000                	.insn	2, 0x
    1e50:	0480                	.insn	2, 0x0480
    1e52:	0000                	.insn	2, 0x
    1e54:	0470                	.insn	2, 0x0470
    1e56:	0000                	.insn	2, 0x
    1e58:	0460                	.insn	2, 0x0460
    1e5a:	0000                	.insn	2, 0x
    1e5c:	0450                	.insn	2, 0x0450
    1e5e:	0000                	.insn	2, 0x
    1e60:	0440                	.insn	2, 0x0440
    1e62:	0000                	.insn	2, 0x
    1e64:	03fc                	.insn	2, 0x03fc
    1e66:	0000                	.insn	2, 0x
    1e68:	04e0                	.insn	2, 0x04e0
	...

Disassembly of section .srodata:

00001e6c <food_color>:
    1e6c:	00e0                	.insn	2, 0x00e0
	...

00001e70 <head_color>:
    1e70:	0045                	.insn	2, 0x0045
	...

00001e74 <snake_color>:
    1e74:	00ff 0000   	.insn	10, 0x004c0000009c000000ff
    1e7c:	 

00001e78 <green2>:
    1e78:	009c                	.insn	2, 0x009c
	...

00001e7c <green1>:
    1e7c:	004c                	.insn	2, 0x004c
	...

00001e80 <num_cols>:
    1e80:	0008                	.insn	2, 0x0008
	...

00001e84 <num_rows>:
    1e84:	0006                	.insn	2, 0x0006
	...

00001e88 <square_size>:
    1e88:	0028                	.insn	2, 0x0028
	...

00001e8c <snakespeed>:
    1e8c:	0002                	.insn	2, 0x0002
	...

Disassembly of section .rodata.str1.4:

00001e90 <.rodata.str1.4>:
    1e90:	5b0a                	.insn	2, 0x5b0a
    1e92:	5845                	.insn	2, 0x5845
    1e94:	54504543          	.insn	4, 0x54504543
    1e98:	4f49                	.insn	2, 0x4f49
    1e9a:	5d4e                	.insn	2, 0x5d4e
    1e9c:	4920                	.insn	2, 0x4920
    1e9e:	736e                	.insn	2, 0x736e
    1ea0:	7274                	.insn	2, 0x7274
    1ea2:	6375                	.insn	2, 0x6375
    1ea4:	6974                	.insn	2, 0x6974
    1ea6:	61206e6f          	jal	t3,84b8 <__global_pointer+0x6543>
    1eaa:	6464                	.insn	2, 0x6464
    1eac:	6572                	.insn	2, 0x6572
    1eae:	6d207373          	csrrci	t1,0x6d2,0
    1eb2:	7369                	.insn	2, 0x7369
    1eb4:	6c61                	.insn	2, 0x6c61
    1eb6:	6769                	.insn	2, 0x6769
    1eb8:	6d6e                	.insn	2, 0x6d6e
    1eba:	6e65                	.insn	2, 0x6e65
    1ebc:	2e74                	.insn	2, 0x2e74
    1ebe:	0020                	.insn	2, 0x0020
    1ec0:	5b0a                	.insn	2, 0x5b0a
    1ec2:	5845                	.insn	2, 0x5845
    1ec4:	54504543          	.insn	4, 0x54504543
    1ec8:	4f49                	.insn	2, 0x4f49
    1eca:	5d4e                	.insn	2, 0x5d4e
    1ecc:	4920                	.insn	2, 0x4920
    1ece:	6c6c                	.insn	2, 0x6c6c
    1ed0:	6765                	.insn	2, 0x6765
    1ed2:	6c61                	.insn	2, 0x6c61
    1ed4:	6920                	.insn	2, 0x6920
    1ed6:	736e                	.insn	2, 0x736e
    1ed8:	7274                	.insn	2, 0x7274
    1eda:	6375                	.insn	2, 0x6375
    1edc:	6974                	.insn	2, 0x6974
    1ede:	202e6e6f          	jal	t3,e80e0 <__global_pointer+0xe616b>
    1ee2:	0000                	.insn	2, 0x
    1ee4:	5b0a                	.insn	2, 0x5b0a
    1ee6:	5845                	.insn	2, 0x5845
    1ee8:	54504543          	.insn	4, 0x54504543
    1eec:	4f49                	.insn	2, 0x4f49
    1eee:	5d4e                	.insn	2, 0x5d4e
    1ef0:	5520                	.insn	2, 0x5520
    1ef2:	6b6e                	.insn	2, 0x6b6e
    1ef4:	6f6e                	.insn	2, 0x6f6e
    1ef6:	65206e77          	.insn	4, 0x65206e77
    1efa:	7272                	.insn	2, 0x7272
    1efc:	202e726f          	jal	tp,e90fe <__global_pointer+0xe7189>
    1f00:	0000                	.insn	2, 0x
    1f02:	0000                	.insn	2, 0x
    1f04:	7845                	.insn	2, 0x7845
    1f06:	74706563          	bltu	zero,t2,2650 <__global_pointer+0x6db>
    1f0a:	6f69                	.insn	2, 0x6f69
    1f0c:	206e                	.insn	2, 0x206e
    1f0e:	6441                	.insn	2, 0x6441
    1f10:	7264                	.insn	2, 0x7264
    1f12:	7365                	.insn	2, 0x7365
    1f14:	00203a73          	csrrc	s4,frm,zero

Disassembly of section .comment:

00000000 <.comment>:
   0:	3a434347          	.insn	4, 0x3a434347
   4:	2820                	.insn	2, 0x2820
   6:	2029                	.insn	2, 0x2029
   8:	3331                	.insn	2, 0x3331
   a:	322e                	.insn	2, 0x322e
   c:	302e                	.insn	2, 0x302e
	...

Disassembly of section .riscv.attributes:

00000000 <.riscv.attributes>:
   0:	3641                	.insn	2, 0x3641
   2:	0000                	.insn	2, 0x
   4:	7200                	.insn	2, 0x7200
   6:	7369                	.insn	2, 0x7369
   8:	01007663          	bgeu	zero,a6,14 <_isr_routine+0xc>
   c:	002c                	.insn	2, 0x002c
   e:	0000                	.insn	2, 0x
  10:	1004                	.insn	2, 0x1004
  12:	7205                	.insn	2, 0x7205
  14:	3376                	.insn	2, 0x3376
  16:	6932                	.insn	2, 0x6932
  18:	7032                	.insn	2, 0x7032
  1a:	5f31                	.insn	2, 0x5f31
  1c:	326d                	.insn	2, 0x326d
  1e:	3070                	.insn	2, 0x3070
  20:	7a5f 6369 7273      	.insn	6, 0x727363697a5f
  26:	7032                	.insn	2, 0x7032
  28:	5f30                	.insn	2, 0x5f30
  2a:	6d7a                	.insn	2, 0x6d7a
  2c:	756d                	.insn	2, 0x756d
  2e:	316c                	.insn	2, 0x316c
  30:	3070                	.insn	2, 0x3070
  32:	0800                	.insn	2, 0x0800
  34:	0a01                	.insn	2, 0x0a01
  36:	Address 0x36 is out of bounds.

