
main.elf:     file format elf32-littleriscv


Disassembly of section .text:

00000000 <_isr_handler>:
       0:	0080006f          	j	8 <_isr_routine>
       4:	1440006f          	j	148 <_start>

00000008 <_isr_routine>:
       8:	f8010113          	addi	sp,sp,-128
       c:	00112023          	sw	ra,0(sp)
      10:	00312423          	sw	gp,8(sp)
      14:	00412623          	sw	tp,12(sp)
      18:	00512823          	sw	t0,16(sp)
      1c:	00612a23          	sw	t1,20(sp)
      20:	00712c23          	sw	t2,24(sp)
      24:	00812e23          	sw	s0,28(sp)
      28:	02912023          	sw	s1,32(sp)
      2c:	02a12223          	sw	a0,36(sp)
      30:	02b12423          	sw	a1,40(sp)
      34:	02c12623          	sw	a2,44(sp)
      38:	02d12823          	sw	a3,48(sp)
      3c:	02e12a23          	sw	a4,52(sp)
      40:	02f12c23          	sw	a5,56(sp)
      44:	03012e23          	sw	a6,60(sp)
      48:	05112023          	sw	a7,64(sp)
      4c:	05212223          	sw	s2,68(sp)
      50:	05312423          	sw	s3,72(sp)
      54:	05412623          	sw	s4,76(sp)
      58:	05512823          	sw	s5,80(sp)
      5c:	05612a23          	sw	s6,84(sp)
      60:	05712c23          	sw	s7,88(sp)
      64:	05812e23          	sw	s8,92(sp)
      68:	07912023          	sw	s9,96(sp)
      6c:	07a12223          	sw	s10,100(sp)
      70:	07b12423          	sw	s11,104(sp)
      74:	07c12623          	sw	t3,108(sp)
      78:	07d12823          	sw	t4,112(sp)
      7c:	07e12a23          	sw	t5,116(sp)
      80:	07f12c23          	sw	t6,120(sp)
      84:	342022f3          	csrr	t0,mcause
      88:	80000337          	lui	t1,0x80000
      8c:	02536463          	bltu	t1,t0,b4 <external_irq>
      90:	00028833          	add	a6,t0,zero
      94:	00b00313          	li	t1,11
      98:	00628463          	beq	t0,t1,a0 <skip_init_args>
      9c:	34102573          	csrr	a0,mepc

000000a0 <skip_init_args>:
      a0:	395000ef          	jal	c34 <handle_exception>
      a4:	341022f3          	csrr	t0,mepc
      a8:	00428293          	addi	t0,t0,4
      ac:	34129073          	csrw	mepc,t0
      b0:	0180006f          	j	c8 <restore>

000000b4 <external_irq>:
      b4:	800002b7          	lui	t0,0x80000
      b8:	fff28293          	addi	t0,t0,-1 # 7fffffff <_stack_end+0x7fefea83>
      bc:	34202373          	csrr	t1,mcause
      c0:	0062f533          	and	a0,t0,t1
      c4:	6b8000ef          	jal	77c <handle_interrupt>

000000c8 <restore>:
      c8:	00012083          	lw	ra,0(sp)
      cc:	00812183          	lw	gp,8(sp)
      d0:	00c12203          	lw	tp,12(sp)
      d4:	01012283          	lw	t0,16(sp)
      d8:	01412303          	lw	t1,20(sp)
      dc:	01812383          	lw	t2,24(sp)
      e0:	01c12403          	lw	s0,28(sp)
      e4:	02012483          	lw	s1,32(sp)
      e8:	02412503          	lw	a0,36(sp)
      ec:	02812583          	lw	a1,40(sp)
      f0:	02c12603          	lw	a2,44(sp)
      f4:	03012683          	lw	a3,48(sp)
      f8:	03412703          	lw	a4,52(sp)
      fc:	03812783          	lw	a5,56(sp)
     100:	03c12803          	lw	a6,60(sp)
     104:	04012883          	lw	a7,64(sp)
     108:	04412903          	lw	s2,68(sp)
     10c:	04812983          	lw	s3,72(sp)
     110:	04c12a03          	lw	s4,76(sp)
     114:	05012a83          	lw	s5,80(sp)
     118:	05412b03          	lw	s6,84(sp)
     11c:	05812b83          	lw	s7,88(sp)
     120:	05c12c03          	lw	s8,92(sp)
     124:	06012c83          	lw	s9,96(sp)
     128:	06412d03          	lw	s10,100(sp)
     12c:	06812d83          	lw	s11,104(sp)
     130:	06c12e03          	lw	t3,108(sp)
     134:	07012e83          	lw	t4,112(sp)
     138:	07412f03          	lw	t5,116(sp)
     13c:	07812f83          	lw	t6,120(sp)
     140:	08010113          	addi	sp,sp,128
     144:	30200073          	mret

00000148 <_start>:
     148:	00101117          	auipc	sp,0x101
     14c:	43410113          	addi	sp,sp,1076 # 10157c <_stack_end>
     150:	00002197          	auipc	gp,0x2
     154:	81118193          	addi	gp,gp,-2031 # 1961 <__global_pointer>
     158:	00001517          	auipc	a0,0x1
     15c:	f5450513          	addi	a0,a0,-172 # 10ac <welcome_msg>
     160:	00400893          	li	a7,4
     164:	00000073          	ecall
     168:	07d000ef          	jal	9e4 <main>

0000016c <loop>:
     16c:	0000006f          	j	16c <loop>

00000170 <enable_interrupt>:
     170:	30486073          	csrsi	mie,16
     174:	3001e073          	csrsi	mstatus,3
     178:	00008067          	ret

0000017c <set_displays>:
     17c:	004007b7          	lui	a5,0x400
     180:	00578793          	addi	a5,a5,5 # 400005 <_stack_end+0x2fea89>
     184:	00f50533          	add	a0,a0,a5
     188:	00900793          	li	a5,9
     18c:	00451513          	slli	a0,a0,0x4
     190:	00b7ee63          	bltu	a5,a1,1ac <set_displays+0x30>
     194:	000017b7          	lui	a5,0x1
     198:	4b478793          	addi	a5,a5,1204 # 14b4 <timeoutcount+0x4>
     19c:	00259593          	slli	a1,a1,0x2
     1a0:	00f585b3          	add	a1,a1,a5
     1a4:	0005a783          	lw	a5,0(a1)
     1a8:	00078067          	jr	a5
     1ac:	00052023          	sw	zero,0(a0)
     1b0:	00008067          	ret
     1b4:	01000793          	li	a5,16
     1b8:	00f52023          	sw	a5,0(a0)
     1bc:	00008067          	ret
     1c0:	04000793          	li	a5,64
     1c4:	00f52023          	sw	a5,0(a0)
     1c8:	00008067          	ret
     1cc:	07900793          	li	a5,121
     1d0:	00f52023          	sw	a5,0(a0)
     1d4:	00008067          	ret
     1d8:	02400793          	li	a5,36
     1dc:	00f52023          	sw	a5,0(a0)
     1e0:	00008067          	ret
     1e4:	03000793          	li	a5,48
     1e8:	00f52023          	sw	a5,0(a0)
     1ec:	00008067          	ret
     1f0:	01900793          	li	a5,25
     1f4:	00f52023          	sw	a5,0(a0)
     1f8:	00008067          	ret
     1fc:	01200793          	li	a5,18
     200:	00f52023          	sw	a5,0(a0)
     204:	00008067          	ret
     208:	00200793          	li	a5,2
     20c:	00f52023          	sw	a5,0(a0)
     210:	00008067          	ret
     214:	07800793          	li	a5,120
     218:	00f52023          	sw	a5,0(a0)
     21c:	00008067          	ret

00000220 <read_timer>:
     220:	040007b7          	lui	a5,0x4000
     224:	0207a503          	lw	a0,32(a5) # 4000020 <_stack_end+0x3efeaa4>
     228:	00008067          	ret

0000022c <random>:
     22c:	040006b7          	lui	a3,0x4000
     230:	0206a783          	lw	a5,32(a3) # 4000020 <_stack_end+0x3efeaa4>
     234:	41c65737          	lui	a4,0x41c65
     238:	e6d70713          	addi	a4,a4,-403 # 41c64e6d <_stack_end+0x41b638f1>
     23c:	02e787b3          	mul	a5,a5,a4
     240:	00003737          	lui	a4,0x3
     244:	03970713          	addi	a4,a4,57 # 3039 <__global_pointer+0x16d8>
     248:	80000537          	lui	a0,0x80000
     24c:	fff50513          	addi	a0,a0,-1 # 7fffffff <_stack_end+0x7fefea83>
     250:	00e787b3          	add	a5,a5,a4
     254:	02a7f533          	remu	a0,a5,a0
     258:	00008067          	ret

0000025c <random_range>:
     25c:	040006b7          	lui	a3,0x4000
     260:	0206a783          	lw	a5,32(a3) # 4000020 <_stack_end+0x3efeaa4>
     264:	41c65737          	lui	a4,0x41c65
     268:	e6d70713          	addi	a4,a4,-403 # 41c64e6d <_stack_end+0x41b638f1>
     26c:	02e787b3          	mul	a5,a5,a4
     270:	00003737          	lui	a4,0x3
     274:	03970713          	addi	a4,a4,57 # 3039 <__global_pointer+0x16d8>
     278:	00e787b3          	add	a5,a5,a4
     27c:	80000737          	lui	a4,0x80000
     280:	fff70713          	addi	a4,a4,-1 # 7fffffff <_stack_end+0x7fefea83>
     284:	02e7f7b3          	remu	a5,a5,a4
     288:	02a7f533          	remu	a0,a5,a0
     28c:	00008067          	ret

00000290 <get_btn1>:
     290:	040007b7          	lui	a5,0x4000
     294:	0e07a503          	lw	a0,224(a5) # 40000e0 <_stack_end+0x3efeb64>
     298:	00157513          	andi	a0,a0,1
     29c:	00008067          	ret

000002a0 <get_btn2>:
     2a0:	040007b7          	lui	a5,0x4000
     2a4:	0e07a503          	lw	a0,224(a5) # 40000e0 <_stack_end+0x3efeb64>
     2a8:	00257513          	andi	a0,a0,2
     2ac:	00008067          	ret

000002b0 <draw_board>:
     2b0:	00002337          	lui	t1,0x2
     2b4:	01400e93          	li	t4,20
     2b8:	00000e13          	li	t3,0
     2bc:	000015b7          	lui	a1,0x1
     2c0:	90030313          	addi	t1,t1,-1792 # 1900 <snakespeed+0x410>
     2c4:	00c00f93          	li	t6,12
     2c8:	000e8893          	mv	a7,t4
     2cc:	000e0813          	mv	a6,t3
     2d0:	010e0f13          	addi	t5,t3,16
     2d4:	00187613          	andi	a2,a6,1
     2d8:	40c00633          	neg	a2,a2
     2dc:	ff867613          	andi	a2,a2,-8
     2e0:	00a60613          	addi	a2,a2,10
     2e4:	00088693          	mv	a3,a7
     2e8:	00688533          	add	a0,a7,t1
     2ec:	fec68793          	addi	a5,a3,-20
     2f0:	1645a703          	lw	a4,356(a1) # 1164 <VGA>
     2f4:	00f70733          	add	a4,a4,a5
     2f8:	00c70023          	sb	a2,0(a4)
     2fc:	00178793          	addi	a5,a5,1
     300:	fef698e3          	bne	a3,a5,2f0 <draw_board+0x40>
     304:	14068693          	addi	a3,a3,320
     308:	fea692e3          	bne	a3,a0,2ec <draw_board+0x3c>
     30c:	00180813          	addi	a6,a6,1
     310:	01488893          	addi	a7,a7,20
     314:	fde810e3          	bne	a6,t5,2d4 <draw_board+0x24>
     318:	001e0e13          	addi	t3,t3,1
     31c:	006e8eb3          	add	t4,t4,t1
     320:	fbfe14e3          	bne	t3,t6,2c8 <draw_board+0x18>
     324:	00008067          	ret

00000328 <draw_box>:
     328:	000027b7          	lui	a5,0x2
     32c:	90078793          	addi	a5,a5,-1792 # 1900 <snakespeed+0x410>
     330:	02f507b3          	mul	a5,a0,a5
     334:	00259713          	slli	a4,a1,0x2
     338:	00002537          	lui	a0,0x2
     33c:	00b70733          	add	a4,a4,a1
     340:	91450513          	addi	a0,a0,-1772 # 1914 <snakespeed+0x424>
     344:	00271713          	slli	a4,a4,0x2
     348:	0ff67613          	zext.b	a2,a2
     34c:	000015b7          	lui	a1,0x1
     350:	01478693          	addi	a3,a5,20
     354:	00a787b3          	add	a5,a5,a0
     358:	00e686b3          	add	a3,a3,a4
     35c:	00e78533          	add	a0,a5,a4
     360:	fec68793          	addi	a5,a3,-20
     364:	1645a703          	lw	a4,356(a1) # 1164 <VGA>
     368:	00f70733          	add	a4,a4,a5
     36c:	00c70023          	sb	a2,0(a4)
     370:	00178793          	addi	a5,a5,1
     374:	fef698e3          	bne	a3,a5,364 <draw_box+0x3c>
     378:	14068693          	addi	a3,a3,320
     37c:	fea692e3          	bne	a3,a0,360 <draw_box+0x38>
     380:	00008067          	ret

00000384 <check_collision>:
     384:	000017b7          	lui	a5,0x1
     388:	17478793          	addi	a5,a5,372 # 1174 <snake>
     38c:	0007a603          	lw	a2,0(a5)
     390:	00b00713          	li	a4,11
     394:	00100513          	li	a0,1
     398:	04c76463          	bltu	a4,a2,3e0 <check_collision+0x5c>
     39c:	0047a803          	lw	a6,4(a5)
     3a0:	00f00713          	li	a4,15
     3a4:	03076e63          	bltu	a4,a6,3e0 <check_collision+0x5c>
     3a8:	00001737          	lui	a4,0x1
     3ac:	4a872583          	lw	a1,1192(a4) # 14a8 <snake_length>
     3b0:	02b55a63          	bge	a0,a1,3e4 <check_collision+0x60>
     3b4:	00878793          	addi	a5,a5,8
     3b8:	00100713          	li	a4,1
     3bc:	00c0006f          	j	3c8 <check_collision+0x44>
     3c0:	00878793          	addi	a5,a5,8
     3c4:	02b70063          	beq	a4,a1,3e4 <check_collision+0x60>
     3c8:	0007a683          	lw	a3,0(a5)
     3cc:	00170713          	addi	a4,a4,1
     3d0:	fed618e3          	bne	a2,a3,3c0 <check_collision+0x3c>
     3d4:	0047a683          	lw	a3,4(a5)
     3d8:	fed814e3          	bne	a6,a3,3c0 <check_collision+0x3c>
     3dc:	00100513          	li	a0,1
     3e0:	00008067          	ret
     3e4:	00000513          	li	a0,0
     3e8:	00008067          	ret

000003ec <spawn_food>:
     3ec:	000017b7          	lui	a5,0x1
     3f0:	4a87a503          	lw	a0,1192(a5) # 14a8 <snake_length>
     3f4:	04000e37          	lui	t3,0x4000
     3f8:	41c65337          	lui	t1,0x41c65
     3fc:	000038b7          	lui	a7,0x3
     400:	80000837          	lui	a6,0x80000
     404:	020e0e13          	addi	t3,t3,32 # 4000020 <_stack_end+0x3efeaa4>
     408:	e6d30313          	addi	t1,t1,-403 # 41c64e6d <_stack_end+0x41b638f1>
     40c:	03988893          	addi	a7,a7,57 # 3039 <__global_pointer+0x16d8>
     410:	fff80813          	addi	a6,a6,-1 # 7fffffff <_stack_end+0x7fefea83>
     414:	00c00e93          	li	t4,12
     418:	00001f37          	lui	t5,0x1
     41c:	000e2603          	lw	a2,0(t3)
     420:	000e2583          	lw	a1,0(t3)
     424:	02660633          	mul	a2,a2,t1
     428:	026585b3          	mul	a1,a1,t1
     42c:	01160633          	add	a2,a2,a7
     430:	011585b3          	add	a1,a1,a7
     434:	03067633          	remu	a2,a2,a6
     438:	0305f5b3          	remu	a1,a1,a6
     43c:	03d67633          	remu	a2,a2,t4
     440:	00f5f593          	andi	a1,a1,15
     444:	02a05a63          	blez	a0,478 <spawn_food+0x8c>
     448:	174f0793          	addi	a5,t5,372 # 1174 <snake>
     44c:	00000713          	li	a4,0
     450:	00c0006f          	j	45c <spawn_food+0x70>
     454:	00878793          	addi	a5,a5,8
     458:	02a70063          	beq	a4,a0,478 <spawn_food+0x8c>
     45c:	0007a683          	lw	a3,0(a5)
     460:	00170713          	addi	a4,a4,1
     464:	fec698e3          	bne	a3,a2,454 <spawn_food+0x68>
     468:	0047a683          	lw	a3,4(a5)
     46c:	fab688e3          	beq	a3,a1,41c <spawn_food+0x30>
     470:	00878793          	addi	a5,a5,8
     474:	fea714e3          	bne	a4,a0,45c <spawn_food+0x70>
     478:	000027b7          	lui	a5,0x2
     47c:	90078793          	addi	a5,a5,-1792 # 1900 <snakespeed+0x410>
     480:	02f607b3          	mul	a5,a2,a5
     484:	00259713          	slli	a4,a1,0x2
     488:	00b705b3          	add	a1,a4,a1
     48c:	00259593          	slli	a1,a1,0x2
     490:	00002737          	lui	a4,0x2
     494:	91470713          	addi	a4,a4,-1772 # 1914 <snakespeed+0x424>
     498:	00001637          	lui	a2,0x1
     49c:	00f585b3          	add	a1,a1,a5
     4a0:	01458693          	addi	a3,a1,20
     4a4:	00e585b3          	add	a1,a1,a4
     4a8:	fec68793          	addi	a5,a3,-20
     4ac:	16462703          	lw	a4,356(a2) # 1164 <VGA>
     4b0:	00f70733          	add	a4,a4,a5
     4b4:	00070023          	sb	zero,0(a4)
     4b8:	00178793          	addi	a5,a5,1
     4bc:	fef698e3          	bne	a3,a5,4ac <spawn_food+0xc0>
     4c0:	14068693          	addi	a3,a3,320
     4c4:	fed592e3          	bne	a1,a3,4a8 <spawn_food+0xbc>
     4c8:	00008067          	ret

000004cc <check_food_collision>:
     4cc:	000017b7          	lui	a5,0x1
     4d0:	17478793          	addi	a5,a5,372 # 1174 <snake>
     4d4:	00001737          	lui	a4,0x1
     4d8:	0007a683          	lw	a3,0(a5)
     4dc:	4a472703          	lw	a4,1188(a4) # 14a4 <food_x>
     4e0:	00e68463          	beq	a3,a4,4e8 <check_food_collision+0x1c>
     4e4:	00008067          	ret
     4e8:	0047a703          	lw	a4,4(a5)
     4ec:	000017b7          	lui	a5,0x1
     4f0:	4a07a783          	lw	a5,1184(a5) # 14a0 <food_y>
     4f4:	fef718e3          	bne	a4,a5,4e4 <check_food_collision+0x18>
     4f8:	00001637          	lui	a2,0x1
     4fc:	000016b7          	lui	a3,0x1
     500:	4a862703          	lw	a4,1192(a2) # 14a8 <snake_length>
     504:	4986a783          	lw	a5,1176(a3) # 1498 <current_highscore>
     508:	000015b7          	lui	a1,0x1
     50c:	00170713          	addi	a4,a4,1
     510:	00178793          	addi	a5,a5,1
     514:	00100513          	li	a0,1
     518:	48a5ae23          	sw	a0,1180(a1) # 149c <has_eaten>
     51c:	4ae62423          	sw	a4,1192(a2)
     520:	48f6ac23          	sw	a5,1176(a3)
     524:	ec9ff06f          	j	3ec <spawn_food>

00000528 <update_snake>:
     528:	00001537          	lui	a0,0x1
     52c:	4a852583          	lw	a1,1192(a0) # 14a8 <snake_length>
     530:	ff010113          	addi	sp,sp,-16
     534:	000018b7          	lui	a7,0x1
     538:	fff58793          	addi	a5,a1,-1
     53c:	00912223          	sw	s1,4(sp)
     540:	00379693          	slli	a3,a5,0x3
     544:	17488493          	addi	s1,a7,372 # 1174 <snake>
     548:	00d486b3          	add	a3,s1,a3
     54c:	00001837          	lui	a6,0x1
     550:	0006a703          	lw	a4,0(a3)
     554:	49c82303          	lw	t1,1180(a6) # 149c <has_eaten>
     558:	0046a683          	lw	a3,4(a3)
     55c:	00112623          	sw	ra,12(sp)
     560:	00812423          	sw	s0,8(sp)
     564:	00d70633          	add	a2,a4,a3
     568:	1a031463          	bnez	t1,710 <update_snake+0x1e8>
     56c:	000027b7          	lui	a5,0x2
     570:	90078793          	addi	a5,a5,-1792 # 1900 <snakespeed+0x410>
     574:	02f705b3          	mul	a1,a4,a5
     578:	00269793          	slli	a5,a3,0x2
     57c:	00d787b3          	add	a5,a5,a3
     580:	00167613          	andi	a2,a2,1
     584:	40c00633          	neg	a2,a2
     588:	00279793          	slli	a5,a5,0x2
     58c:	00002737          	lui	a4,0x2
     590:	ff867613          	andi	a2,a2,-8
     594:	91470713          	addi	a4,a4,-1772 # 1914 <snakespeed+0x424>
     598:	00a60613          	addi	a2,a2,10
     59c:	00f585b3          	add	a1,a1,a5
     5a0:	01458693          	addi	a3,a1,20
     5a4:	00001437          	lui	s0,0x1
     5a8:	00e585b3          	add	a1,a1,a4
     5ac:	fec68793          	addi	a5,a3,-20
     5b0:	16442703          	lw	a4,356(s0) # 1164 <VGA>
     5b4:	00f70733          	add	a4,a4,a5
     5b8:	00c70023          	sb	a2,0(a4)
     5bc:	00178793          	addi	a5,a5,1
     5c0:	fed798e3          	bne	a5,a3,5b0 <update_snake+0x88>
     5c4:	14078693          	addi	a3,a5,320
     5c8:	fed592e3          	bne	a1,a3,5ac <update_snake+0x84>
     5cc:	4a852583          	lw	a1,1192(a0)
     5d0:	fff58793          	addi	a5,a1,-1
     5d4:	02f05463          	blez	a5,5fc <update_snake+0xd4>
     5d8:	00379793          	slli	a5,a5,0x3
     5dc:	00f487b3          	add	a5,s1,a5
     5e0:	17488493          	addi	s1,a7,372
     5e4:	ffc7a683          	lw	a3,-4(a5)
     5e8:	ff87a703          	lw	a4,-8(a5)
     5ec:	ff878793          	addi	a5,a5,-8
     5f0:	00d7a623          	sw	a3,12(a5)
     5f4:	00e7a423          	sw	a4,8(a5)
     5f8:	fef496e3          	bne	s1,a5,5e4 <update_snake+0xbc>
     5fc:	000017b7          	lui	a5,0x1
     600:	4ac7a683          	lw	a3,1196(a5) # 14ac <direction>
     604:	00200893          	li	a7,2
     608:	0044a603          	lw	a2,4(s1)
     60c:	41f6d793          	srai	a5,a3,0x1f
     610:	01e7d793          	srli	a5,a5,0x1e
     614:	00f68733          	add	a4,a3,a5
     618:	00377713          	andi	a4,a4,3
     61c:	40f70733          	sub	a4,a4,a5
     620:	0004a783          	lw	a5,0(s1)
     624:	15170663          	beq	a4,a7,770 <update_snake+0x248>
     628:	00300893          	li	a7,3
     62c:	13170c63          	beq	a4,a7,764 <update_snake+0x23c>
     630:	0036f693          	andi	a3,a3,3
     634:	0e068463          	beqz	a3,71c <update_snake+0x1f4>
     638:	00100693          	li	a3,1
     63c:	00d71663          	bne	a4,a3,648 <update_snake+0x120>
     640:	00178793          	addi	a5,a5,1
     644:	00f4a023          	sw	a5,0(s1)
     648:	00b00713          	li	a4,11
     64c:	02f76e63          	bltu	a4,a5,688 <update_snake+0x160>
     650:	00f00713          	li	a4,15
     654:	02c76a63          	bltu	a4,a2,688 <update_snake+0x160>
     658:	00100713          	li	a4,1
     65c:	04b75263          	bge	a4,a1,6a0 <update_snake+0x178>
     660:	00848713          	addi	a4,s1,8
     664:	00100693          	li	a3,1
     668:	00c0006f          	j	674 <update_snake+0x14c>
     66c:	00870713          	addi	a4,a4,8
     670:	02b68863          	beq	a3,a1,6a0 <update_snake+0x178>
     674:	00072883          	lw	a7,0(a4)
     678:	00168693          	addi	a3,a3,1
     67c:	fef898e3          	bne	a7,a5,66c <update_snake+0x144>
     680:	00472883          	lw	a7,4(a4)
     684:	fec894e3          	bne	a7,a2,66c <update_snake+0x144>
     688:	00001737          	lui	a4,0x1
     68c:	000016b7          	lui	a3,0x1
     690:	4986a683          	lw	a3,1176(a3) # 1498 <current_highscore>
     694:	49472883          	lw	a7,1172(a4) # 1494 <highest_score>
     698:	00d8d463          	bge	a7,a3,6a0 <update_snake+0x178>
     69c:	48d72a23          	sw	a3,1172(a4)
     6a0:	00001737          	lui	a4,0x1
     6a4:	4a472703          	lw	a4,1188(a4) # 14a4 <food_x>
     6a8:	08f70063          	beq	a4,a5,728 <update_snake+0x200>
     6ac:	00002737          	lui	a4,0x2
     6b0:	90070713          	addi	a4,a4,-1792 # 1900 <snakespeed+0x410>
     6b4:	02e785b3          	mul	a1,a5,a4
     6b8:	00261793          	slli	a5,a2,0x2
     6bc:	00c787b3          	add	a5,a5,a2
     6c0:	00279793          	slli	a5,a5,0x2
     6c4:	00002737          	lui	a4,0x2
     6c8:	91470713          	addi	a4,a4,-1772 # 1914 <snakespeed+0x424>
     6cc:	fff00613          	li	a2,-1
     6d0:	00f585b3          	add	a1,a1,a5
     6d4:	01458693          	addi	a3,a1,20
     6d8:	00e585b3          	add	a1,a1,a4
     6dc:	fec68793          	addi	a5,a3,-20
     6e0:	16442703          	lw	a4,356(s0)
     6e4:	00f70733          	add	a4,a4,a5
     6e8:	00c70023          	sb	a2,0(a4)
     6ec:	00178793          	addi	a5,a5,1
     6f0:	fed798e3          	bne	a5,a3,6e0 <update_snake+0x1b8>
     6f4:	14078693          	addi	a3,a5,320
     6f8:	fed592e3          	bne	a1,a3,6dc <update_snake+0x1b4>
     6fc:	00c12083          	lw	ra,12(sp)
     700:	00812403          	lw	s0,8(sp)
     704:	00412483          	lw	s1,4(sp)
     708:	01010113          	addi	sp,sp,16
     70c:	00008067          	ret
     710:	48082e23          	sw	zero,1180(a6)
     714:	00001437          	lui	s0,0x1
     718:	ebdff06f          	j	5d4 <update_snake+0xac>
     71c:	00160613          	addi	a2,a2,1
     720:	00c4a223          	sw	a2,4(s1)
     724:	f25ff06f          	j	648 <update_snake+0x120>
     728:	00001737          	lui	a4,0x1
     72c:	4a072703          	lw	a4,1184(a4) # 14a0 <food_y>
     730:	f6c71ee3          	bne	a4,a2,6ac <update_snake+0x184>
     734:	00001737          	lui	a4,0x1
     738:	49872783          	lw	a5,1176(a4) # 1498 <current_highscore>
     73c:	00158593          	addi	a1,a1,1
     740:	00100693          	li	a3,1
     744:	00178793          	addi	a5,a5,1
     748:	48f72c23          	sw	a5,1176(a4)
     74c:	48d82e23          	sw	a3,1180(a6)
     750:	4ab52423          	sw	a1,1192(a0)
     754:	c99ff0ef          	jal	3ec <spawn_food>
     758:	0004a783          	lw	a5,0(s1)
     75c:	0044a603          	lw	a2,4(s1)
     760:	f4dff06f          	j	6ac <update_snake+0x184>
     764:	fff78793          	addi	a5,a5,-1
     768:	00f4a023          	sw	a5,0(s1)
     76c:	eddff06f          	j	648 <update_snake+0x120>
     770:	fff60613          	addi	a2,a2,-1
     774:	00c4a223          	sw	a2,4(s1)
     778:	ed1ff06f          	j	648 <update_snake+0x120>

0000077c <handle_interrupt>:
     77c:	01000793          	li	a5,16
     780:	00f50463          	beq	a0,a5,788 <handle_interrupt+0xc>
     784:	00008067          	ret
     788:	000015b7          	lui	a1,0x1
     78c:	4b05a783          	lw	a5,1200(a1) # 14b0 <timeoutcount>
     790:	04000737          	lui	a4,0x4000
     794:	02075683          	lhu	a3,32(a4) # 4000020 <_stack_end+0x3efeaa4>
     798:	00010637          	lui	a2,0x10
     79c:	ffe60613          	addi	a2,a2,-2 # fffe <__global_pointer+0xe69d>
     7a0:	00178793          	addi	a5,a5,1
     7a4:	00c6f6b3          	and	a3,a3,a2
     7a8:	4af5a823          	sw	a5,1200(a1)
     7ac:	00400613          	li	a2,4
     7b0:	02d71023          	sh	a3,32(a4)
     7b4:	fcf658e3          	bge	a2,a5,784 <handle_interrupt+0x8>
     7b8:	4a05a823          	sw	zero,1200(a1)
     7bc:	d6dff06f          	j	528 <update_snake>

000007c0 <game_over>:
     7c0:	000017b7          	lui	a5,0x1
     7c4:	00001737          	lui	a4,0x1
     7c8:	49872703          	lw	a4,1176(a4) # 1498 <current_highscore>
     7cc:	4947a683          	lw	a3,1172(a5) # 1494 <highest_score>
     7d0:	00e6d463          	bge	a3,a4,7d8 <game_over+0x18>
     7d4:	48e7aa23          	sw	a4,1172(a5)
     7d8:	00008067          	ret

000007dc <init_snake>:
     7dc:	00001737          	lui	a4,0x1
     7e0:	00300693          	li	a3,3
     7e4:	4ad72423          	sw	a3,1192(a4) # 14a8 <snake_length>
     7e8:	00001737          	lui	a4,0x1
     7ec:	27000693          	li	a3,624
     7f0:	00001837          	lui	a6,0x1
     7f4:	4ad72623          	sw	a3,1196(a4) # 14ac <direction>
     7f8:	00001737          	lui	a4,0x1
     7fc:	17480813          	addi	a6,a6,372 # 1174 <snake>
     800:	48072e23          	sw	zero,1180(a4) # 149c <has_eaten>
     804:	00800713          	li	a4,8
     808:	00600793          	li	a5,6
     80c:	00002e37          	lui	t3,0x2
     810:	ffffef37          	lui	t5,0xffffe
     814:	00002eb7          	lui	t4,0x2
     818:	00e82223          	sw	a4,4(a6)
     81c:	00700713          	li	a4,7
     820:	00f82023          	sw	a5,0(a6)
     824:	00f82423          	sw	a5,8(a6)
     828:	00e82623          	sw	a4,12(a6)
     82c:	00f82823          	sw	a5,16(a6)
     830:	00f82a23          	sw	a5,20(a6)
     834:	914e0e13          	addi	t3,t3,-1772 # 1914 <snakespeed+0x424>
     838:	00000313          	li	t1,0
     83c:	00001637          	lui	a2,0x1
     840:	700f0f13          	addi	t5,t5,1792 # ffffe700 <_stack_end+0xffefd184>
     844:	900e8e93          	addi	t4,t4,-1792 # 1900 <snakespeed+0x410>
     848:	00c00293          	li	t0,12
     84c:	000e0513          	mv	a0,t3
     850:	00030893          	mv	a7,t1
     854:	01030f93          	addi	t6,t1,16
     858:	0018f593          	andi	a1,a7,1
     85c:	40b005b3          	neg	a1,a1
     860:	ff85f593          	andi	a1,a1,-8
     864:	00a58593          	addi	a1,a1,10
     868:	01e506b3          	add	a3,a0,t5
     86c:	fec68793          	addi	a5,a3,-20
     870:	16462703          	lw	a4,356(a2) # 1164 <VGA>
     874:	00f70733          	add	a4,a4,a5
     878:	00b70023          	sb	a1,0(a4)
     87c:	00178793          	addi	a5,a5,1
     880:	fed798e3          	bne	a5,a3,870 <__heap_size+0x70>
     884:	14078693          	addi	a3,a5,320
     888:	fea692e3          	bne	a3,a0,86c <__heap_size+0x6c>
     88c:	00188893          	addi	a7,a7,1
     890:	15478513          	addi	a0,a5,340
     894:	fdf892e3          	bne	a7,t6,858 <__heap_size+0x58>
     898:	00130313          	addi	t1,t1,1
     89c:	01de0e33          	add	t3,t3,t4
     8a0:	fa5316e3          	bne	t1,t0,84c <__heap_size+0x4c>
     8a4:	00082683          	lw	a3,0(a6)
     8a8:	00482583          	lw	a1,4(a6)
     8ac:	00002737          	lui	a4,0x2
     8b0:	03d686b3          	mul	a3,a3,t4
     8b4:	00259793          	slli	a5,a1,0x2
     8b8:	00b787b3          	add	a5,a5,a1
     8bc:	00279793          	slli	a5,a5,0x2
     8c0:	91470713          	addi	a4,a4,-1772 # 1914 <snakespeed+0x424>
     8c4:	fff00513          	li	a0,-1
     8c8:	00d787b3          	add	a5,a5,a3
     8cc:	01478593          	addi	a1,a5,20
     8d0:	00e786b3          	add	a3,a5,a4
     8d4:	fec58793          	addi	a5,a1,-20
     8d8:	16462703          	lw	a4,356(a2)
     8dc:	00f70733          	add	a4,a4,a5
     8e0:	00a70023          	sb	a0,0(a4)
     8e4:	00178793          	addi	a5,a5,1
     8e8:	feb798e3          	bne	a5,a1,8d8 <__heap_size+0xd8>
     8ec:	14078593          	addi	a1,a5,320
     8f0:	fed592e3          	bne	a1,a3,8d4 <__heap_size+0xd4>
     8f4:	00882683          	lw	a3,8(a6)
     8f8:	000027b7          	lui	a5,0x2
     8fc:	90078793          	addi	a5,a5,-1792 # 1900 <snakespeed+0x410>
     900:	02f686b3          	mul	a3,a3,a5
     904:	00c82583          	lw	a1,12(a6)
     908:	00002737          	lui	a4,0x2
     90c:	91470713          	addi	a4,a4,-1772 # 1914 <snakespeed+0x424>
     910:	00259793          	slli	a5,a1,0x2
     914:	00b787b3          	add	a5,a5,a1
     918:	00279793          	slli	a5,a5,0x2
     91c:	fff00513          	li	a0,-1
     920:	00d787b3          	add	a5,a5,a3
     924:	01478593          	addi	a1,a5,20
     928:	00e786b3          	add	a3,a5,a4
     92c:	fec58793          	addi	a5,a1,-20
     930:	16462703          	lw	a4,356(a2)
     934:	00f70733          	add	a4,a4,a5
     938:	00a70023          	sb	a0,0(a4)
     93c:	00178793          	addi	a5,a5,1
     940:	feb798e3          	bne	a5,a1,930 <__heap_size+0x130>
     944:	14078593          	addi	a1,a5,320
     948:	fed592e3          	bne	a1,a3,92c <__heap_size+0x12c>
     94c:	01082683          	lw	a3,16(a6)
     950:	000027b7          	lui	a5,0x2
     954:	90078793          	addi	a5,a5,-1792 # 1900 <snakespeed+0x410>
     958:	02f686b3          	mul	a3,a3,a5
     95c:	01482583          	lw	a1,20(a6)
     960:	00002737          	lui	a4,0x2
     964:	91470713          	addi	a4,a4,-1772 # 1914 <snakespeed+0x424>
     968:	00259793          	slli	a5,a1,0x2
     96c:	00b787b3          	add	a5,a5,a1
     970:	00279793          	slli	a5,a5,0x2
     974:	fff00513          	li	a0,-1
     978:	00d787b3          	add	a5,a5,a3
     97c:	01478593          	addi	a1,a5,20
     980:	00e786b3          	add	a3,a5,a4
     984:	fec58793          	addi	a5,a1,-20
     988:	16462703          	lw	a4,356(a2)
     98c:	00f70733          	add	a4,a4,a5
     990:	00a70023          	sb	a0,0(a4)
     994:	00178793          	addi	a5,a5,1
     998:	fef598e3          	bne	a1,a5,988 <__heap_size+0x188>
     99c:	14058593          	addi	a1,a1,320
     9a0:	feb692e3          	bne	a3,a1,984 <__heap_size+0x184>
     9a4:	a49ff06f          	j	3ec <spawn_food>

000009a8 <labinit>:
     9a8:	04000737          	lui	a4,0x4000
     9ac:	ffffc637          	lui	a2,0xffffc
     9b0:	0e072223          	sw	zero,228(a4) # 40000e4 <_stack_end+0x3efeb68>
     9b4:	040007b7          	lui	a5,0x4000
     9b8:	6bf60613          	addi	a2,a2,1727 # ffffc6bf <_stack_end+0xffefb143>
     9bc:	02c79423          	sh	a2,40(a5) # 4000028 <_stack_end+0x3efeaac>
     9c0:	040006b7          	lui	a3,0x4000
     9c4:	02d00613          	li	a2,45
     9c8:	040007b7          	lui	a5,0x4000
     9cc:	02c69623          	sh	a2,44(a3) # 400002c <_stack_end+0x3efeab0>
     9d0:	00700713          	li	a4,7
     9d4:	02e79223          	sh	a4,36(a5) # 4000024 <_stack_end+0x3efeaa8>
     9d8:	30486073          	csrsi	mie,16
     9dc:	3001e073          	csrsi	mstatus,3
     9e0:	00008067          	ret

000009e4 <main>:
     9e4:	fe010113          	addi	sp,sp,-32
     9e8:	00112e23          	sw	ra,28(sp)
     9ec:	00812c23          	sw	s0,24(sp)
     9f0:	00912a23          	sw	s1,20(sp)
     9f4:	01212823          	sw	s2,16(sp)
     9f8:	01312623          	sw	s3,12(sp)
     9fc:	04000737          	lui	a4,0x4000
     a00:	ffffc637          	lui	a2,0xffffc
     a04:	0e072223          	sw	zero,228(a4) # 40000e4 <_stack_end+0x3efeb68>
     a08:	040007b7          	lui	a5,0x4000
     a0c:	6bf60613          	addi	a2,a2,1727 # ffffc6bf <_stack_end+0xffefb143>
     a10:	02c79423          	sh	a2,40(a5) # 4000028 <_stack_end+0x3efeaac>
     a14:	040006b7          	lui	a3,0x4000
     a18:	02d00613          	li	a2,45
     a1c:	040007b7          	lui	a5,0x4000
     a20:	02c69623          	sh	a2,44(a3) # 400002c <_stack_end+0x3efeab0>
     a24:	00700713          	li	a4,7
     a28:	02e79223          	sh	a4,36(a5) # 4000024 <_stack_end+0x3efeaa8>
     a2c:	30486073          	csrsi	mie,16
     a30:	3001e073          	csrsi	mstatus,3
     a34:	040004b7          	lui	s1,0x4000
     a38:	da5ff0ef          	jal	7dc <init_snake>
     a3c:	00000993          	li	s3,0
     a40:	00000913          	li	s2,0
     a44:	00001437          	lui	s0,0x1
     a48:	0e048493          	addi	s1,s1,224 # 40000e0 <_stack_end+0x3efeb64>
     a4c:	01c0006f          	j	a68 <main+0x84>
     a50:	4ac42783          	lw	a5,1196(s0) # 14ac <direction>
     a54:	00100993          	li	s3,1
     a58:	fff78793          	addi	a5,a5,-1
     a5c:	4af42623          	sw	a5,1196(s0)
     a60:	00a00513          	li	a0,10
     a64:	55c000ef          	jal	fc0 <delay>
     a68:	0004a783          	lw	a5,0(s1)
     a6c:	0017f793          	andi	a5,a5,1
     a70:	0127e7b3          	or	a5,a5,s2
     a74:	04079263          	bnez	a5,ab8 <main+0xd4>
     a78:	4ac42783          	lw	a5,1196(s0)
     a7c:	00100913          	li	s2,1
     a80:	00178793          	addi	a5,a5,1
     a84:	4af42623          	sw	a5,1196(s0)
     a88:	4ac42503          	lw	a0,1196(s0)
     a8c:	098000ef          	jal	b24 <print_dec>
     a90:	0004a783          	lw	a5,0(s1)
     a94:	0027f793          	andi	a5,a5,2
     a98:	0137e7b3          	or	a5,a5,s3
     a9c:	fa078ae3          	beqz	a5,a50 <main+0x6c>
     aa0:	0004a783          	lw	a5,0(s1)
     aa4:	0027f793          	andi	a5,a5,2
     aa8:	0017b793          	seqz	a5,a5
     aac:	40f007b3          	neg	a5,a5
     ab0:	00f9f9b3          	and	s3,s3,a5
     ab4:	fadff06f          	j	a60 <main+0x7c>
     ab8:	0004a783          	lw	a5,0(s1)
     abc:	0017f793          	andi	a5,a5,1
     ac0:	fff78793          	addi	a5,a5,-1
     ac4:	00f97933          	and	s2,s2,a5
     ac8:	fc9ff06f          	j	a90 <main+0xac>

00000acc <printc>:
     acc:	04000737          	lui	a4,0x4000
     ad0:	04470713          	addi	a4,a4,68 # 4000044 <_stack_end+0x3efeac8>
     ad4:	000106b7          	lui	a3,0x10
     ad8:	00072783          	lw	a5,0(a4)
     adc:	fed7eee3          	bltu	a5,a3,ad8 <printc+0xc>
     ae0:	040007b7          	lui	a5,0x4000
     ae4:	04a7a023          	sw	a0,64(a5) # 4000040 <_stack_end+0x3efeac4>
     ae8:	00008067          	ret

00000aec <print>:
     aec:	00054603          	lbu	a2,0(a0)
     af0:	02060863          	beqz	a2,b20 <print+0x34>
     af4:	04000737          	lui	a4,0x4000
     af8:	040005b7          	lui	a1,0x4000
     afc:	04470713          	addi	a4,a4,68 # 4000044 <_stack_end+0x3efeac8>
     b00:	000106b7          	lui	a3,0x10
     b04:	04058593          	addi	a1,a1,64 # 4000040 <_stack_end+0x3efeac4>
     b08:	00072783          	lw	a5,0(a4)
     b0c:	fed7eee3          	bltu	a5,a3,b08 <print+0x1c>
     b10:	00c5a023          	sw	a2,0(a1)
     b14:	00154603          	lbu	a2,1(a0)
     b18:	00150513          	addi	a0,a0,1
     b1c:	fe0616e3          	bnez	a2,b08 <print+0x1c>
     b20:	00008067          	ret

00000b24 <print_dec>:
     b24:	3b9ad737          	lui	a4,0x3b9ad
     b28:	040006b7          	lui	a3,0x4000
     b2c:	04000337          	lui	t1,0x4000
     b30:	00a00593          	li	a1,10
     b34:	00000793          	li	a5,0
     b38:	a0070713          	addi	a4,a4,-1536 # 3b9aca00 <_stack_end+0x3b8ab484>
     b3c:	04468693          	addi	a3,a3,68 # 4000044 <_stack_end+0x3efeac8>
     b40:	00010637          	lui	a2,0x10
     b44:	04030313          	addi	t1,t1,64 # 4000040 <_stack_end+0x3efeac4>
     b48:	00a00893          	li	a7,10
     b4c:	04e57063          	bgeu	a0,a4,b8c <print_dec+0x68>
     b50:	02079e63          	bnez	a5,b8c <print_dec+0x68>
     b54:	fff58593          	addi	a1,a1,-1
     b58:	02e57533          	remu	a0,a0,a4
     b5c:	03175733          	divu	a4,a4,a7
     b60:	fe0596e3          	bnez	a1,b4c <print_dec+0x28>
     b64:	02079263          	bnez	a5,b88 <print_dec+0x64>
     b68:	04000737          	lui	a4,0x4000
     b6c:	04470713          	addi	a4,a4,68 # 4000044 <_stack_end+0x3efeac8>
     b70:	000106b7          	lui	a3,0x10
     b74:	00072783          	lw	a5,0(a4)
     b78:	fed7eee3          	bltu	a5,a3,b74 <print_dec+0x50>
     b7c:	040007b7          	lui	a5,0x4000
     b80:	03000713          	li	a4,48
     b84:	04e7a023          	sw	a4,64(a5) # 4000040 <_stack_end+0x3efeac4>
     b88:	00008067          	ret
     b8c:	02e55833          	divu	a6,a0,a4
     b90:	03080813          	addi	a6,a6,48
     b94:	0ff87813          	zext.b	a6,a6
     b98:	0006a783          	lw	a5,0(a3) # 10000 <__global_pointer+0xe69f>
     b9c:	fec7eee3          	bltu	a5,a2,b98 <print_dec+0x74>
     ba0:	01032023          	sw	a6,0(t1)
     ba4:	00100793          	li	a5,1
     ba8:	fadff06f          	j	b54 <print_dec+0x30>

00000bac <print_hex32>:
     bac:	04000737          	lui	a4,0x4000
     bb0:	04470713          	addi	a4,a4,68 # 4000044 <_stack_end+0x3efeac8>
     bb4:	000106b7          	lui	a3,0x10
     bb8:	00072783          	lw	a5,0(a4)
     bbc:	fed7eee3          	bltu	a5,a3,bb8 <print_hex32+0xc>
     bc0:	03000693          	li	a3,48
     bc4:	040007b7          	lui	a5,0x4000
     bc8:	04000737          	lui	a4,0x4000
     bcc:	04d7a023          	sw	a3,64(a5) # 4000040 <_stack_end+0x3efeac4>
     bd0:	04470713          	addi	a4,a4,68 # 4000044 <_stack_end+0x3efeac8>
     bd4:	000106b7          	lui	a3,0x10
     bd8:	00072783          	lw	a5,0(a4)
     bdc:	fed7eee3          	bltu	a5,a3,bd8 <print_hex32+0x2c>
     be0:	04000837          	lui	a6,0x4000
     be4:	04080813          	addi	a6,a6,64 # 4000040 <_stack_end+0x3efeac4>
     be8:	04000737          	lui	a4,0x4000
     bec:	07800793          	li	a5,120
     bf0:	00f82023          	sw	a5,0(a6)
     bf4:	01c00613          	li	a2,28
     bf8:	00900313          	li	t1,9
     bfc:	04470713          	addi	a4,a4,68 # 4000044 <_stack_end+0x3efeac8>
     c00:	000106b7          	lui	a3,0x10
     c04:	ffc00893          	li	a7,-4
     c08:	00c557b3          	srl	a5,a0,a2
     c0c:	00f7f793          	andi	a5,a5,15
     c10:	03778593          	addi	a1,a5,55
     c14:	00f36463          	bltu	t1,a5,c1c <print_hex32+0x70>
     c18:	03078593          	addi	a1,a5,48
     c1c:	00072783          	lw	a5,0(a4)
     c20:	fed7eee3          	bltu	a5,a3,c1c <print_hex32+0x70>
     c24:	00b82023          	sw	a1,0(a6)
     c28:	ffc60613          	addi	a2,a2,-4 # fffc <__global_pointer+0xe69b>
     c2c:	fd161ee3          	bne	a2,a7,c08 <print_hex32+0x5c>
     c30:	00008067          	ret

00000c34 <handle_exception>:
     c34:	00200793          	li	a5,2
     c38:	18f80863          	beq	a6,a5,dc8 <handle_exception+0x194>
     c3c:	00b00793          	li	a5,11
     c40:	12f80063          	beq	a6,a5,d60 <handle_exception+0x12c>
     c44:	04000737          	lui	a4,0x4000
     c48:	14081463          	bnez	a6,d90 <handle_exception+0x15c>
     c4c:	04000837          	lui	a6,0x4000
     c50:	00001637          	lui	a2,0x1
     c54:	4f460613          	addi	a2,a2,1268 # 14f4 <snakespeed+0x4>
     c58:	00a00593          	li	a1,10
     c5c:	04470713          	addi	a4,a4,68 # 4000044 <_stack_end+0x3efeac8>
     c60:	000106b7          	lui	a3,0x10
     c64:	04080813          	addi	a6,a6,64 # 4000040 <_stack_end+0x3efeac4>
     c68:	00072783          	lw	a5,0(a4)
     c6c:	fed7eee3          	bltu	a5,a3,c68 <handle_exception+0x34>
     c70:	00b82023          	sw	a1,0(a6)
     c74:	00164583          	lbu	a1,1(a2)
     c78:	00160613          	addi	a2,a2,1
     c7c:	fe0596e3          	bnez	a1,c68 <handle_exception+0x34>
     c80:	04000737          	lui	a4,0x4000
     c84:	04000837          	lui	a6,0x4000
     c88:	00001637          	lui	a2,0x1
     c8c:	56860613          	addi	a2,a2,1384 # 1568 <snakespeed+0x78>
     c90:	04500593          	li	a1,69
     c94:	04470713          	addi	a4,a4,68 # 4000044 <_stack_end+0x3efeac8>
     c98:	000106b7          	lui	a3,0x10
     c9c:	04080813          	addi	a6,a6,64 # 4000040 <_stack_end+0x3efeac4>
     ca0:	00072783          	lw	a5,0(a4)
     ca4:	fed7eee3          	bltu	a5,a3,ca0 <handle_exception+0x6c>
     ca8:	00b82023          	sw	a1,0(a6)
     cac:	00164583          	lbu	a1,1(a2)
     cb0:	00160613          	addi	a2,a2,1
     cb4:	fe0596e3          	bnez	a1,ca0 <handle_exception+0x6c>
     cb8:	04000737          	lui	a4,0x4000
     cbc:	04470713          	addi	a4,a4,68 # 4000044 <_stack_end+0x3efeac8>
     cc0:	000106b7          	lui	a3,0x10
     cc4:	00072783          	lw	a5,0(a4)
     cc8:	fed7eee3          	bltu	a5,a3,cc4 <handle_exception+0x90>
     ccc:	03000693          	li	a3,48
     cd0:	040007b7          	lui	a5,0x4000
     cd4:	04000737          	lui	a4,0x4000
     cd8:	04d7a023          	sw	a3,64(a5) # 4000040 <_stack_end+0x3efeac4>
     cdc:	04470713          	addi	a4,a4,68 # 4000044 <_stack_end+0x3efeac8>
     ce0:	000106b7          	lui	a3,0x10
     ce4:	00072783          	lw	a5,0(a4)
     ce8:	fed7eee3          	bltu	a5,a3,ce4 <handle_exception+0xb0>
     cec:	04000837          	lui	a6,0x4000
     cf0:	04080813          	addi	a6,a6,64 # 4000040 <_stack_end+0x3efeac4>
     cf4:	04000737          	lui	a4,0x4000
     cf8:	07800793          	li	a5,120
     cfc:	00f82023          	sw	a5,0(a6)
     d00:	01c00613          	li	a2,28
     d04:	00900313          	li	t1,9
     d08:	04470713          	addi	a4,a4,68 # 4000044 <_stack_end+0x3efeac8>
     d0c:	000106b7          	lui	a3,0x10
     d10:	ffc00893          	li	a7,-4
     d14:	00c557b3          	srl	a5,a0,a2
     d18:	00f7f793          	andi	a5,a5,15
     d1c:	03778593          	addi	a1,a5,55
     d20:	00f36463          	bltu	t1,a5,d28 <handle_exception+0xf4>
     d24:	03078593          	addi	a1,a5,48
     d28:	00072783          	lw	a5,0(a4)
     d2c:	fed7eee3          	bltu	a5,a3,d28 <handle_exception+0xf4>
     d30:	00b82023          	sw	a1,0(a6)
     d34:	ffc60613          	addi	a2,a2,-4
     d38:	fd161ee3          	bne	a2,a7,d14 <handle_exception+0xe0>
     d3c:	04000737          	lui	a4,0x4000
     d40:	04470713          	addi	a4,a4,68 # 4000044 <_stack_end+0x3efeac8>
     d44:	000106b7          	lui	a3,0x10
     d48:	00072783          	lw	a5,0(a4)
     d4c:	fed7eee3          	bltu	a5,a3,d48 <handle_exception+0x114>
     d50:	040007b7          	lui	a5,0x4000
     d54:	00a00713          	li	a4,10
     d58:	04e7a023          	sw	a4,64(a5) # 4000040 <_stack_end+0x3efeac4>
     d5c:	0000006f          	j	d5c <handle_exception+0x128>
     d60:	00400793          	li	a5,4
     d64:	0af88063          	beq	a7,a5,e04 <handle_exception+0x1d0>
     d68:	0d089a63          	bne	a7,a6,e3c <handle_exception+0x208>
     d6c:	04000737          	lui	a4,0x4000
     d70:	04470713          	addi	a4,a4,68 # 4000044 <_stack_end+0x3efeac8>
     d74:	000106b7          	lui	a3,0x10
     d78:	00072783          	lw	a5,0(a4)
     d7c:	fed7eee3          	bltu	a5,a3,d78 <handle_exception+0x144>
     d80:	040007b7          	lui	a5,0x4000
     d84:	0ff57513          	zext.b	a0,a0
     d88:	04a7a023          	sw	a0,64(a5) # 4000040 <_stack_end+0x3efeac4>
     d8c:	00008067          	ret
     d90:	04000837          	lui	a6,0x4000
     d94:	00001637          	lui	a2,0x1
     d98:	54860613          	addi	a2,a2,1352 # 1548 <snakespeed+0x58>
     d9c:	00a00593          	li	a1,10
     da0:	04470713          	addi	a4,a4,68
     da4:	000106b7          	lui	a3,0x10
     da8:	04080813          	addi	a6,a6,64 # 4000040 <_stack_end+0x3efeac4>
     dac:	00072783          	lw	a5,0(a4)
     db0:	fed7eee3          	bltu	a5,a3,dac <handle_exception+0x178>
     db4:	00b82023          	sw	a1,0(a6)
     db8:	00164583          	lbu	a1,1(a2)
     dbc:	00160613          	addi	a2,a2,1
     dc0:	fe0596e3          	bnez	a1,dac <handle_exception+0x178>
     dc4:	ebdff06f          	j	c80 <handle_exception+0x4c>
     dc8:	04000737          	lui	a4,0x4000
     dcc:	04000837          	lui	a6,0x4000
     dd0:	00001637          	lui	a2,0x1
     dd4:	52460613          	addi	a2,a2,1316 # 1524 <snakespeed+0x34>
     dd8:	00a00593          	li	a1,10
     ddc:	04470713          	addi	a4,a4,68 # 4000044 <_stack_end+0x3efeac8>
     de0:	000106b7          	lui	a3,0x10
     de4:	04080813          	addi	a6,a6,64 # 4000040 <_stack_end+0x3efeac4>
     de8:	00072783          	lw	a5,0(a4)
     dec:	fed7eee3          	bltu	a5,a3,de8 <handle_exception+0x1b4>
     df0:	00b82023          	sw	a1,0(a6)
     df4:	00164583          	lbu	a1,1(a2)
     df8:	00160613          	addi	a2,a2,1
     dfc:	fe0596e3          	bnez	a1,de8 <handle_exception+0x1b4>
     e00:	e81ff06f          	j	c80 <handle_exception+0x4c>
     e04:	00054603          	lbu	a2,0(a0)
     e08:	02060a63          	beqz	a2,e3c <handle_exception+0x208>
     e0c:	04000737          	lui	a4,0x4000
     e10:	040005b7          	lui	a1,0x4000
     e14:	04470713          	addi	a4,a4,68 # 4000044 <_stack_end+0x3efeac8>
     e18:	000106b7          	lui	a3,0x10
     e1c:	04058593          	addi	a1,a1,64 # 4000040 <_stack_end+0x3efeac4>
     e20:	00072783          	lw	a5,0(a4)
     e24:	fed7eee3          	bltu	a5,a3,e20 <handle_exception+0x1ec>
     e28:	00c5a023          	sw	a2,0(a1)
     e2c:	00154603          	lbu	a2,1(a0)
     e30:	00150513          	addi	a0,a0,1
     e34:	fe0616e3          	bnez	a2,e20 <handle_exception+0x1ec>
     e38:	00008067          	ret
     e3c:	00008067          	ret

00000e40 <nextprime>:
     e40:	00200713          	li	a4,2
     e44:	00050793          	mv	a5,a0
     e48:	02a74063          	blt	a4,a0,e68 <nextprime+0x28>
     e4c:	00100513          	li	a0,1
     e50:	00f05a63          	blez	a5,e64 <nextprime+0x24>
     e54:	fff78793          	addi	a5,a5,-1
     e58:	00f037b3          	snez	a5,a5
     e5c:	00278513          	addi	a0,a5,2
     e60:	00008067          	ret
     e64:	00008067          	ret
     e68:	00150793          	addi	a5,a0,1
     e6c:	0017e513          	ori	a0,a5,1
     e70:	00300613          	li	a2,3
     e74:	02c567b3          	rem	a5,a0,a2
     e78:	40155693          	srai	a3,a0,0x1
     e7c:	02078263          	beqz	a5,ea0 <nextprime+0x60>
     e80:	00268693          	addi	a3,a3,2 # 10002 <__global_pointer+0xe6a1>
     e84:	00300793          	li	a5,3
     e88:	00c0006f          	j	e94 <nextprime+0x54>
     e8c:	02f56733          	rem	a4,a0,a5
     e90:	00070863          	beqz	a4,ea0 <nextprime+0x60>
     e94:	00178793          	addi	a5,a5,1
     e98:	fef69ae3          	bne	a3,a5,e8c <nextprime+0x4c>
     e9c:	00008067          	ret
     ea0:	00250513          	addi	a0,a0,2
     ea4:	fd1ff06f          	j	e74 <nextprime+0x34>

00000ea8 <display_string>:
     ea8:	00400893          	li	a7,4
     eac:	00000073          	ecall
     eb0:	00a00513          	li	a0,10
     eb4:	00b00893          	li	a7,11
     eb8:	00000073          	ecall
     ebc:	00008067          	ret

00000ec0 <timetemplate>:
     ec0:	00000517          	auipc	a0,0x0
     ec4:	28450513          	addi	a0,a0,644 # 1144 <timstr>
     ec8:	fe1ff0ef          	jal	ea8 <display_string>
     ecc:	3e800513          	li	a0,1000
     ed0:	0f0000ef          	jal	fc0 <delay>
     ed4:	00000517          	auipc	a0,0x0
     ed8:	26c50513          	addi	a0,a0,620 # 1140 <mytime>
     edc:	020000ef          	jal	efc <tick>
     ee0:	00000517          	auipc	a0,0x0
     ee4:	26450513          	addi	a0,a0,612 # 1144 <timstr>
     ee8:	00000297          	auipc	t0,0x0
     eec:	25828293          	addi	t0,t0,600 # 1140 <mytime>
     ef0:	0002a583          	lw	a1,0(t0)
     ef4:	0f0000ef          	jal	fe4 <time2string>
     ef8:	fc9ff06f          	j	ec0 <timetemplate>

00000efc <tick>:
     efc:	00052283          	lw	t0,0(a0)
     f00:	00128293          	addi	t0,t0,1
     f04:	00f2f313          	andi	t1,t0,15
     f08:	00a33393          	sltiu	t2,t1,10
     f0c:	06039063          	bnez	t2,f6c <tiend>
     f10:	00628293          	addi	t0,t0,6
     f14:	0f02f313          	andi	t1,t0,240
     f18:	06033393          	sltiu	t2,t1,96
     f1c:	04039863          	bnez	t2,f6c <tiend>
     f20:	0a028293          	addi	t0,t0,160
     f24:	00f00e13          	li	t3,15
     f28:	008e1e13          	slli	t3,t3,0x8
     f2c:	01c2f333          	and	t1,t0,t3
     f30:	00a00e13          	li	t3,10
     f34:	008e1e13          	slli	t3,t3,0x8
     f38:	01c323b3          	slt	t2,t1,t3
     f3c:	02039863          	bnez	t2,f6c <tiend>
     f40:	60028293          	addi	t0,t0,1536
     f44:	00f00e13          	li	t3,15
     f48:	00ce1e13          	slli	t3,t3,0xc
     f4c:	01c2f333          	and	t1,t0,t3
     f50:	00600e13          	li	t3,6
     f54:	00ce1e13          	slli	t3,t3,0xc
     f58:	01c323b3          	slt	t2,t1,t3
     f5c:	00039863          	bnez	t2,f6c <tiend>
     f60:	00a00e13          	li	t3,10
     f64:	00ce1e13          	slli	t3,t3,0xc
     f68:	01c282b3          	add	t0,t0,t3

00000f6c <tiend>:
     f6c:	00552023          	sw	t0,0(a0)
     f70:	00008067          	ret

00000f74 <hex2asc>:
     f74:	00400513          	li	a0,4
     f78:	ffc10113          	addi	sp,sp,-4
     f7c:	00112023          	sw	ra,0(sp)
     f80:	018000ef          	jal	f98 <hexasc>
     f84:	00b00893          	li	a7,11
     f88:	00000073          	ecall
     f8c:	00012083          	lw	ra,0(sp)
     f90:	00410113          	addi	sp,sp,4
     f94:	00008067          	ret

00000f98 <hexasc>:
     f98:	00f57513          	andi	a0,a0,15
     f9c:	00a00293          	li	t0,10
     fa0:	00554863          	blt	a0,t0,fb0 <digit>
     fa4:	03700293          	li	t0,55
     fa8:	00550533          	add	a0,a0,t0
     fac:	00c0006f          	j	fb8 <done>

00000fb0 <digit>:
     fb0:	03000293          	li	t0,48
     fb4:	00550533          	add	a0,a0,t0

00000fb8 <done>:
     fb8:	07f57513          	andi	a0,a0,127
     fbc:	00008067          	ret

00000fc0 <delay>:
     fc0:	00050293          	mv	t0,a0

00000fc4 <delay_while>:
     fc4:	00505e63          	blez	t0,fe0 <delay_end>
     fc8:	fff28293          	addi	t0,t0,-1
     fcc:	00004337          	lui	t1,0x4
     fd0:	a9830313          	addi	t1,t1,-1384 # 3a98 <__global_pointer+0x2137>

00000fd4 <delay_for>:
     fd4:	fff30313          	addi	t1,t1,-1
     fd8:	fe031ee3          	bnez	t1,fd4 <delay_for>
     fdc:	fe9ff06f          	j	fc4 <delay_while>

00000fe0 <delay_end>:
     fe0:	00008067          	ret

00000fe4 <time2string>:
     fe4:	ffc10113          	addi	sp,sp,-4
     fe8:	00112023          	sw	ra,0(sp)
     fec:	ffc10113          	addi	sp,sp,-4
     ff0:	00912023          	sw	s1,0(sp)
     ff4:	0085d493          	srli	s1,a1,0x8
     ff8:	0ff4f493          	zext.b	s1,s1
     ffc:	ffc10113          	addi	sp,sp,-4
    1000:	00a12023          	sw	a0,0(sp)
    1004:	0044d513          	srli	a0,s1,0x4
    1008:	00f57513          	andi	a0,a0,15
    100c:	f8dff0ef          	jal	f98 <hexasc>
    1010:	00050393          	mv	t2,a0
    1014:	00012503          	lw	a0,0(sp)
    1018:	00410113          	addi	sp,sp,4
    101c:	00750023          	sb	t2,0(a0)
    1020:	ffc10113          	addi	sp,sp,-4
    1024:	00a12023          	sw	a0,0(sp)
    1028:	00f4f513          	andi	a0,s1,15
    102c:	f6dff0ef          	jal	f98 <hexasc>
    1030:	00050393          	mv	t2,a0
    1034:	00012503          	lw	a0,0(sp)
    1038:	00410113          	addi	sp,sp,4
    103c:	007500a3          	sb	t2,1(a0)
    1040:	03a00e93          	li	t4,58
    1044:	01d50123          	sb	t4,2(a0)
    1048:	0ff5f493          	zext.b	s1,a1
    104c:	ffc10113          	addi	sp,sp,-4
    1050:	00a12023          	sw	a0,0(sp)
    1054:	0044d513          	srli	a0,s1,0x4
    1058:	00f57513          	andi	a0,a0,15
    105c:	f3dff0ef          	jal	f98 <hexasc>
    1060:	00050393          	mv	t2,a0
    1064:	00012503          	lw	a0,0(sp)
    1068:	00410113          	addi	sp,sp,4
    106c:	007501a3          	sb	t2,3(a0)
    1070:	ffc10113          	addi	sp,sp,-4
    1074:	00a12023          	sw	a0,0(sp)
    1078:	00f4f513          	andi	a0,s1,15
    107c:	f1dff0ef          	jal	f98 <hexasc>
    1080:	00050393          	mv	t2,a0
    1084:	00012503          	lw	a0,0(sp)
    1088:	00410113          	addi	sp,sp,4
    108c:	00750223          	sb	t2,4(a0)
    1090:	00000e93          	li	t4,0
    1094:	01d502a3          	sb	t4,5(a0)
    1098:	00012483          	lw	s1,0(sp)
    109c:	00410113          	addi	sp,sp,4
    10a0:	00012083          	lw	ra,0(sp)
    10a4:	00410113          	addi	sp,sp,4
    10a8:	00008067          	ret

Disassembly of section .data:

000010ac <welcome_msg>:
    10ac:	3d3d                	.insn	2, 0x3d3d
    10ae:	3d3d                	.insn	2, 0x3d3d
    10b0:	3d3d                	.insn	2, 0x3d3d
    10b2:	3d3d                	.insn	2, 0x3d3d
    10b4:	3d3d                	.insn	2, 0x3d3d
    10b6:	3d3d                	.insn	2, 0x3d3d
    10b8:	3d3d                	.insn	2, 0x3d3d
    10ba:	3d3d                	.insn	2, 0x3d3d
    10bc:	3d3d                	.insn	2, 0x3d3d
    10be:	3d3d                	.insn	2, 0x3d3d
    10c0:	3d3d                	.insn	2, 0x3d3d
    10c2:	3d3d                	.insn	2, 0x3d3d
    10c4:	3d3d                	.insn	2, 0x3d3d
    10c6:	3d3d                	.insn	2, 0x3d3d
    10c8:	3d3d                	.insn	2, 0x3d3d
    10ca:	3d3d                	.insn	2, 0x3d3d
    10cc:	3d3d                	.insn	2, 0x3d3d
    10ce:	3d3d                	.insn	2, 0x3d3d
    10d0:	3d3d                	.insn	2, 0x3d3d
    10d2:	3d3d                	.insn	2, 0x3d3d
    10d4:	3d3d                	.insn	2, 0x3d3d
    10d6:	3d3d                	.insn	2, 0x3d3d
    10d8:	3d3d                	.insn	2, 0x3d3d
    10da:	3d3d                	.insn	2, 0x3d3d
    10dc:	3d0a                	.insn	2, 0x3d0a
    10de:	3d3d                	.insn	2, 0x3d3d
    10e0:	3d3d                	.insn	2, 0x3d3d
    10e2:	5220                	.insn	2, 0x5220
    10e4:	5349                	.insn	2, 0x5349
    10e6:	20562d43          	.insn	4, 0x20562d43
    10ea:	6f42                	.insn	2, 0x6f42
    10ec:	552d746f          	jal	s0,d863e <__global_pointer+0xd6cdd>
    10f0:	2070                	.insn	2, 0x2070
    10f2:	7250                	.insn	2, 0x7250
    10f4:	7365636f          	jal	t1,5782a <__global_pointer+0x55ec9>
    10f8:	6f4e2073          	csrs	0x6f4,t3
    10fc:	6f432077          	.insn	4, 0x6f432077
    1100:	706d                	.insn	2, 0x706d
    1102:	656c                	.insn	2, 0x656c
    1104:	6574                	.insn	2, 0x6574
    1106:	3d20                	.insn	2, 0x3d20
    1108:	3d3d                	.insn	2, 0x3d3d
    110a:	3d3d                	.insn	2, 0x3d3d
    110c:	0a3d                	.insn	2, 0x0a3d
    110e:	3d3d                	.insn	2, 0x3d3d
    1110:	3d3d                	.insn	2, 0x3d3d
    1112:	3d3d                	.insn	2, 0x3d3d
    1114:	3d3d                	.insn	2, 0x3d3d
    1116:	3d3d                	.insn	2, 0x3d3d
    1118:	3d3d                	.insn	2, 0x3d3d
    111a:	3d3d                	.insn	2, 0x3d3d
    111c:	3d3d                	.insn	2, 0x3d3d
    111e:	3d3d                	.insn	2, 0x3d3d
    1120:	3d3d                	.insn	2, 0x3d3d
    1122:	3d3d                	.insn	2, 0x3d3d
    1124:	3d3d                	.insn	2, 0x3d3d
    1126:	3d3d                	.insn	2, 0x3d3d
    1128:	3d3d                	.insn	2, 0x3d3d
    112a:	3d3d                	.insn	2, 0x3d3d
    112c:	3d3d                	.insn	2, 0x3d3d
    112e:	3d3d                	.insn	2, 0x3d3d
    1130:	3d3d                	.insn	2, 0x3d3d
    1132:	3d3d                	.insn	2, 0x3d3d
    1134:	3d3d                	.insn	2, 0x3d3d
    1136:	3d3d                	.insn	2, 0x3d3d
    1138:	3d3d                	.insn	2, 0x3d3d
    113a:	3d3d                	.insn	2, 0x3d3d
    113c:	3d3d                	.insn	2, 0x3d3d
    113e:	000a                	.insn	2, 0x000a

00001140 <mytime>:
    1140:	00005957          	.insn	4, 0x5957

00001144 <timstr>:
    1144:	6574                	.insn	2, 0x6574
    1146:	7478                	.insn	2, 0x7478
    1148:	6d20                	.insn	2, 0x6d20
    114a:	2065726f          	jal	tp,58350 <__global_pointer+0x569ef>
    114e:	6574                	.insn	2, 0x6574
    1150:	7478                	.insn	2, 0x7478
    1152:	6c20                	.insn	2, 0x6c20
    1154:	2073746f          	jal	s0,38b5a <__global_pointer+0x371f9>
    1158:	7420666f          	jal	a2,789a <__global_pointer+0x5f39>
    115c:	7865                	.insn	2, 0x7865
    115e:	0074                	.insn	2, 0x0074
    1160:	0000                	.insn	2, 0x
	...

00001164 <VGA>:
    1164:	0000                	.insn	2, 0x
    1166:	0800                	.insn	2, 0x0800

00001168 <tenth_hour>:
    1168:	0002                	.insn	2, 0x0002
	...

0000116c <hours>:
    116c:	00000003          	lb	zero,0(zero) # 0 <_isr_handler>

00001170 <mytime>:
    1170:	5950                	.insn	2, 0x5950
	...

Disassembly of section .rodata:

000014b4 <.rodata>:
    14b4:	01c0                	.insn	2, 0x01c0
    14b6:	0000                	.insn	2, 0x
    14b8:	01cc                	.insn	2, 0x01cc
    14ba:	0000                	.insn	2, 0x
    14bc:	01d8                	.insn	2, 0x01d8
    14be:	0000                	.insn	2, 0x
    14c0:	01e4                	.insn	2, 0x01e4
    14c2:	0000                	.insn	2, 0x
    14c4:	01f0                	.insn	2, 0x01f0
    14c6:	0000                	.insn	2, 0x
    14c8:	01fc                	.insn	2, 0x01fc
    14ca:	0000                	.insn	2, 0x
    14cc:	0208                	.insn	2, 0x0208
    14ce:	0000                	.insn	2, 0x
    14d0:	0214                	.insn	2, 0x0214
    14d2:	0000                	.insn	2, 0x
    14d4:	01ac                	.insn	2, 0x01ac
    14d6:	0000                	.insn	2, 0x
    14d8:	01b4                	.insn	2, 0x01b4
	...

Disassembly of section .srodata:

000014dc <food_color>:
    14dc:	0000                	.insn	2, 0x
    14de:	00ff    	.insn	10, 0x001000000fff00ff
    14e6:	 

000014e0 <snake_color>:
    14e0:	0fff 0000   	.insn	10, 0x000c0000001000000fff
    14e8:	 

000014e4 <num_cols>:
    14e4:	0010                	.insn	2, 0x0010
	...

000014e8 <num_rows>:
    14e8:	000c                	.insn	2, 0x000c
	...

000014ec <square_size>:
    14ec:	0014                	.insn	2, 0x0014
	...

000014f0 <snakespeed>:
    14f0:	0002                	.insn	2, 0x0002
	...

Disassembly of section .rodata.str1.4:

000014f4 <.rodata.str1.4>:
    14f4:	5b0a                	.insn	2, 0x5b0a
    14f6:	5845                	.insn	2, 0x5845
    14f8:	54504543          	.insn	4, 0x54504543
    14fc:	4f49                	.insn	2, 0x4f49
    14fe:	5d4e                	.insn	2, 0x5d4e
    1500:	4920                	.insn	2, 0x4920
    1502:	736e                	.insn	2, 0x736e
    1504:	7274                	.insn	2, 0x7274
    1506:	6375                	.insn	2, 0x6375
    1508:	6974                	.insn	2, 0x6974
    150a:	61206e6f          	jal	t3,7b1c <__global_pointer+0x61bb>
    150e:	6464                	.insn	2, 0x6464
    1510:	6572                	.insn	2, 0x6572
    1512:	6d207373          	csrrci	t1,0x6d2,0
    1516:	7369                	.insn	2, 0x7369
    1518:	6c61                	.insn	2, 0x6c61
    151a:	6769                	.insn	2, 0x6769
    151c:	6d6e                	.insn	2, 0x6d6e
    151e:	6e65                	.insn	2, 0x6e65
    1520:	2e74                	.insn	2, 0x2e74
    1522:	0020                	.insn	2, 0x0020
    1524:	5b0a                	.insn	2, 0x5b0a
    1526:	5845                	.insn	2, 0x5845
    1528:	54504543          	.insn	4, 0x54504543
    152c:	4f49                	.insn	2, 0x4f49
    152e:	5d4e                	.insn	2, 0x5d4e
    1530:	4920                	.insn	2, 0x4920
    1532:	6c6c                	.insn	2, 0x6c6c
    1534:	6765                	.insn	2, 0x6765
    1536:	6c61                	.insn	2, 0x6c61
    1538:	6920                	.insn	2, 0x6920
    153a:	736e                	.insn	2, 0x736e
    153c:	7274                	.insn	2, 0x7274
    153e:	6375                	.insn	2, 0x6375
    1540:	6974                	.insn	2, 0x6974
    1542:	202e6e6f          	jal	t3,e7744 <__global_pointer+0xe5de3>
    1546:	0000                	.insn	2, 0x
    1548:	5b0a                	.insn	2, 0x5b0a
    154a:	5845                	.insn	2, 0x5845
    154c:	54504543          	.insn	4, 0x54504543
    1550:	4f49                	.insn	2, 0x4f49
    1552:	5d4e                	.insn	2, 0x5d4e
    1554:	5520                	.insn	2, 0x5520
    1556:	6b6e                	.insn	2, 0x6b6e
    1558:	6f6e                	.insn	2, 0x6f6e
    155a:	65206e77          	.insn	4, 0x65206e77
    155e:	7272                	.insn	2, 0x7272
    1560:	202e726f          	jal	tp,e8762 <__global_pointer+0xe6e01>
    1564:	0000                	.insn	2, 0x
    1566:	0000                	.insn	2, 0x
    1568:	7845                	.insn	2, 0x7845
    156a:	74706563          	bltu	zero,t2,1cb4 <__global_pointer+0x353>
    156e:	6f69                	.insn	2, 0x6f69
    1570:	206e                	.insn	2, 0x206e
    1572:	6441                	.insn	2, 0x6441
    1574:	7264                	.insn	2, 0x7264
    1576:	7365                	.insn	2, 0x7365
    1578:	00203a73          	csrrc	s4,frm,zero

Disassembly of section .comment:

00000000 <.comment>:
   0:	3a434347          	.insn	4, 0x3a434347
   4:	2820                	.insn	2, 0x2820
   6:	2029                	.insn	2, 0x2029
   8:	3331                	.insn	2, 0x3331
   a:	322e                	.insn	2, 0x322e
   c:	302e                	.insn	2, 0x302e
	...

Disassembly of section .riscv.attributes:

00000000 <.riscv.attributes>:
   0:	3641                	.insn	2, 0x3641
   2:	0000                	.insn	2, 0x
   4:	7200                	.insn	2, 0x7200
   6:	7369                	.insn	2, 0x7369
   8:	01007663          	bgeu	zero,a6,14 <_isr_routine+0xc>
   c:	002c                	.insn	2, 0x002c
   e:	0000                	.insn	2, 0x
  10:	1004                	.insn	2, 0x1004
  12:	7205                	.insn	2, 0x7205
  14:	3376                	.insn	2, 0x3376
  16:	6932                	.insn	2, 0x6932
  18:	7032                	.insn	2, 0x7032
  1a:	5f31                	.insn	2, 0x5f31
  1c:	326d                	.insn	2, 0x326d
  1e:	3070                	.insn	2, 0x3070
  20:	7a5f 6369 7273      	.insn	6, 0x727363697a5f
  26:	7032                	.insn	2, 0x7032
  28:	5f30                	.insn	2, 0x5f30
  2a:	6d7a                	.insn	2, 0x6d7a
  2c:	756d                	.insn	2, 0x756d
  2e:	316c                	.insn	2, 0x316c
  30:	3070                	.insn	2, 0x3070
  32:	0800                	.insn	2, 0x0800
  34:	0a01                	.insn	2, 0x0a01
  36:	Address 0x36 is out of bounds.

