
main.elf:     file format elf32-littleriscv


Disassembly of section .text:

00000000 <_isr_handler>:
       0:	0080006f          	j	8 <_isr_routine>
       4:	1440006f          	j	148 <_start>

00000008 <_isr_routine>:
       8:	f8010113          	addi	sp,sp,-128
       c:	00112023          	sw	ra,0(sp)
      10:	00312423          	sw	gp,8(sp)
      14:	00412623          	sw	tp,12(sp)
      18:	00512823          	sw	t0,16(sp)
      1c:	00612a23          	sw	t1,20(sp)
      20:	00712c23          	sw	t2,24(sp)
      24:	00812e23          	sw	s0,28(sp)
      28:	02912023          	sw	s1,32(sp)
      2c:	02a12223          	sw	a0,36(sp)
      30:	02b12423          	sw	a1,40(sp)
      34:	02c12623          	sw	a2,44(sp)
      38:	02d12823          	sw	a3,48(sp)
      3c:	02e12a23          	sw	a4,52(sp)
      40:	02f12c23          	sw	a5,56(sp)
      44:	03012e23          	sw	a6,60(sp)
      48:	05112023          	sw	a7,64(sp)
      4c:	05212223          	sw	s2,68(sp)
      50:	05312423          	sw	s3,72(sp)
      54:	05412623          	sw	s4,76(sp)
      58:	05512823          	sw	s5,80(sp)
      5c:	05612a23          	sw	s6,84(sp)
      60:	05712c23          	sw	s7,88(sp)
      64:	05812e23          	sw	s8,92(sp)
      68:	07912023          	sw	s9,96(sp)
      6c:	07a12223          	sw	s10,100(sp)
      70:	07b12423          	sw	s11,104(sp)
      74:	07c12623          	sw	t3,108(sp)
      78:	07d12823          	sw	t4,112(sp)
      7c:	07e12a23          	sw	t5,116(sp)
      80:	07f12c23          	sw	t6,120(sp)
      84:	342022f3          	csrr	t0,mcause
      88:	80000337          	lui	t1,0x80000
      8c:	02536463          	bltu	t1,t0,b4 <external_irq>
      90:	00028833          	add	a6,t0,zero
      94:	00b00313          	li	t1,11
      98:	00628463          	beq	t0,t1,a0 <skip_init_args>
      9c:	34102573          	csrr	a0,mepc

000000a0 <skip_init_args>:
      a0:	5d9000ef          	jal	e78 <handle_exception>
      a4:	341022f3          	csrr	t0,mepc
      a8:	00428293          	addi	t0,t0,4
      ac:	34129073          	csrw	mepc,t0
      b0:	0180006f          	j	c8 <restore>

000000b4 <external_irq>:
      b4:	800002b7          	lui	t0,0x80000
      b8:	fff28293          	addi	t0,t0,-1 # 7fffffff <_stack_end+0x7fefe797>
      bc:	34202373          	csrr	t1,mcause
      c0:	0062f533          	and	a0,t0,t1
      c4:	075000ef          	jal	938 <handle_interrupt>

000000c8 <restore>:
      c8:	00012083          	lw	ra,0(sp)
      cc:	00812183          	lw	gp,8(sp)
      d0:	00c12203          	lw	tp,12(sp)
      d4:	01012283          	lw	t0,16(sp)
      d8:	01412303          	lw	t1,20(sp)
      dc:	01812383          	lw	t2,24(sp)
      e0:	01c12403          	lw	s0,28(sp)
      e4:	02012483          	lw	s1,32(sp)
      e8:	02412503          	lw	a0,36(sp)
      ec:	02812583          	lw	a1,40(sp)
      f0:	02c12603          	lw	a2,44(sp)
      f4:	03012683          	lw	a3,48(sp)
      f8:	03412703          	lw	a4,52(sp)
      fc:	03812783          	lw	a5,56(sp)
     100:	03c12803          	lw	a6,60(sp)
     104:	04012883          	lw	a7,64(sp)
     108:	04412903          	lw	s2,68(sp)
     10c:	04812983          	lw	s3,72(sp)
     110:	04c12a03          	lw	s4,76(sp)
     114:	05012a83          	lw	s5,80(sp)
     118:	05412b03          	lw	s6,84(sp)
     11c:	05812b83          	lw	s7,88(sp)
     120:	05c12c03          	lw	s8,92(sp)
     124:	06012c83          	lw	s9,96(sp)
     128:	06412d03          	lw	s10,100(sp)
     12c:	06812d83          	lw	s11,104(sp)
     130:	06c12e03          	lw	t3,108(sp)
     134:	07012e83          	lw	t4,112(sp)
     138:	07412f03          	lw	t5,116(sp)
     13c:	07812f83          	lw	t6,120(sp)
     140:	08010113          	addi	sp,sp,128
     144:	30200073          	mret

00000148 <_start>:
     148:	00101117          	auipc	sp,0x101
     14c:	72010113          	addi	sp,sp,1824 # 101868 <_stack_end>
     150:	00002197          	auipc	gp,0x2
     154:	a5518193          	addi	gp,gp,-1451 # 1ba5 <__global_pointer>
     158:	00001517          	auipc	a0,0x1
     15c:	19850513          	addi	a0,a0,408 # 12f0 <welcome_msg>
     160:	00400893          	li	a7,4
     164:	00000073          	ecall
     168:	281000ef          	jal	be8 <main>

0000016c <loop>:
     16c:	0000006f          	j	16c <loop>

00000170 <enable_interrupt>:
     170:	30486073          	csrsi	mie,16
     174:	3001e073          	csrsi	mstatus,3
     178:	00008067          	ret

0000017c <set_displays>:
     17c:	004007b7          	lui	a5,0x400
     180:	00578793          	addi	a5,a5,5 # 400005 <_stack_end+0x2fe79d>
     184:	00f50533          	add	a0,a0,a5
     188:	00900793          	li	a5,9
     18c:	00451513          	slli	a0,a0,0x4
     190:	00b7ee63          	bltu	a5,a1,1ac <set_displays+0x30>
     194:	000017b7          	lui	a5,0x1
     198:	70478793          	addi	a5,a5,1796 # 1704 <random_number+0x4>
     19c:	00259593          	slli	a1,a1,0x2
     1a0:	00f585b3          	add	a1,a1,a5
     1a4:	0005a783          	lw	a5,0(a1)
     1a8:	00078067          	jr	a5
     1ac:	00052023          	sw	zero,0(a0)
     1b0:	00008067          	ret
     1b4:	01000793          	li	a5,16
     1b8:	00f52023          	sw	a5,0(a0)
     1bc:	00008067          	ret
     1c0:	04000793          	li	a5,64
     1c4:	00f52023          	sw	a5,0(a0)
     1c8:	00008067          	ret
     1cc:	07900793          	li	a5,121
     1d0:	00f52023          	sw	a5,0(a0)
     1d4:	00008067          	ret
     1d8:	02400793          	li	a5,36
     1dc:	00f52023          	sw	a5,0(a0)
     1e0:	00008067          	ret
     1e4:	03000793          	li	a5,48
     1e8:	00f52023          	sw	a5,0(a0)
     1ec:	00008067          	ret
     1f0:	01900793          	li	a5,25
     1f4:	00f52023          	sw	a5,0(a0)
     1f8:	00008067          	ret
     1fc:	01200793          	li	a5,18
     200:	00f52023          	sw	a5,0(a0)
     204:	00008067          	ret
     208:	00200793          	li	a5,2
     20c:	00f52023          	sw	a5,0(a0)
     210:	00008067          	ret
     214:	07800793          	li	a5,120
     218:	00f52023          	sw	a5,0(a0)
     21c:	00008067          	ret

00000220 <read_timer>:
     220:	040007b7          	lui	a5,0x4000
     224:	0207a503          	lw	a0,32(a5) # 4000020 <_stack_end+0x3efe7b8>
     228:	00008067          	ret

0000022c <random>:
     22c:	000017b7          	lui	a5,0x1
     230:	7007a683          	lw	a3,1792(a5) # 1700 <random_number>
     234:	07300793          	li	a5,115
     238:	00003737          	lui	a4,0x3
     23c:	02d787b3          	mul	a5,a5,a3
     240:	03970713          	addi	a4,a4,57 # 3039 <__global_pointer+0x1494>
     244:	80000537          	lui	a0,0x80000
     248:	fff50513          	addi	a0,a0,-1 # 7fffffff <_stack_end+0x7fefe797>
     24c:	00e787b3          	add	a5,a5,a4
     250:	02a7e533          	rem	a0,a5,a0
     254:	00008067          	ret

00000258 <random_range>:
     258:	000017b7          	lui	a5,0x1
     25c:	7007a683          	lw	a3,1792(a5) # 1700 <random_number>
     260:	07300793          	li	a5,115
     264:	00003737          	lui	a4,0x3
     268:	02d787b3          	mul	a5,a5,a3
     26c:	03970713          	addi	a4,a4,57 # 3039 <__global_pointer+0x1494>
     270:	00e787b3          	add	a5,a5,a4
     274:	80000737          	lui	a4,0x80000
     278:	fff70713          	addi	a4,a4,-1 # 7fffffff <_stack_end+0x7fefe797>
     27c:	02e7e7b3          	rem	a5,a5,a4
     280:	02a7f533          	remu	a0,a5,a0
     284:	00008067          	ret

00000288 <get_btn_restart>:
     288:	040007b7          	lui	a5,0x4000
     28c:	0d07a503          	lw	a0,208(a5) # 40000d0 <_stack_end+0x3efe868>
     290:	00157513          	andi	a0,a0,1
     294:	00008067          	ret

00000298 <get_btn1>:
     298:	040007b7          	lui	a5,0x4000
     29c:	0e07a503          	lw	a0,224(a5) # 40000e0 <_stack_end+0x3efe878>
     2a0:	00157513          	andi	a0,a0,1
     2a4:	00008067          	ret

000002a8 <get_btn2>:
     2a8:	040007b7          	lui	a5,0x4000
     2ac:	0e07a503          	lw	a0,224(a5) # 40000e0 <_stack_end+0x3efe878>
     2b0:	00257513          	andi	a0,a0,2
     2b4:	00008067          	ret

000002b8 <draw_board>:
     2b8:	00002e37          	lui	t3,0x2
     2bc:	01400f13          	li	t5,20
     2c0:	00000e93          	li	t4,0
     2c4:	00001537          	lui	a0,0x1
     2c8:	000015b7          	lui	a1,0x1
     2cc:	900e0e13          	addi	t3,t3,-1792 # 1900 <snakespeed+0x9c>
     2d0:	00c00293          	li	t0,12
     2d4:	000f0313          	mv	t1,t5
     2d8:	000e8893          	mv	a7,t4
     2dc:	010e8f93          	addi	t6,t4,16
     2e0:	0018f613          	andi	a2,a7,1
     2e4:	40c00633          	neg	a2,a2
     2e8:	ff867613          	andi	a2,a2,-8
     2ec:	00a60613          	addi	a2,a2,10
     2f0:	00030693          	mv	a3,t1
     2f4:	01c30833          	add	a6,t1,t3
     2f8:	fec68793          	addi	a5,a3,-20
     2fc:	3a85a703          	lw	a4,936(a1) # 13a8 <VGA>
     300:	6cf52e23          	sw	a5,1756(a0) # 16dc <pixel_index>
     304:	00f70733          	add	a4,a4,a5
     308:	00c70023          	sb	a2,0(a4)
     30c:	00178793          	addi	a5,a5,1
     310:	fef696e3          	bne	a3,a5,2fc <draw_board+0x44>
     314:	14068693          	addi	a3,a3,320
     318:	ff0690e3          	bne	a3,a6,2f8 <draw_board+0x40>
     31c:	00188893          	addi	a7,a7,1
     320:	01430313          	addi	t1,t1,20 # 80000014 <_stack_end+0x7fefe7ac>
     324:	fbf89ee3          	bne	a7,t6,2e0 <draw_board+0x28>
     328:	001e8e93          	addi	t4,t4,1
     32c:	01cf0f33          	add	t5,t5,t3
     330:	fa5e92e3          	bne	t4,t0,2d4 <draw_board+0x1c>
     334:	00008067          	ret

00000338 <draw_box>:
     338:	000027b7          	lui	a5,0x2
     33c:	90078793          	addi	a5,a5,-1792 # 1900 <snakespeed+0x9c>
     340:	02f507b3          	mul	a5,a0,a5
     344:	00259713          	slli	a4,a1,0x2
     348:	00002837          	lui	a6,0x2
     34c:	00b70733          	add	a4,a4,a1
     350:	91480813          	addi	a6,a6,-1772 # 1914 <snakespeed+0xb0>
     354:	00271713          	slli	a4,a4,0x2
     358:	0ff67613          	zext.b	a2,a2
     35c:	00001537          	lui	a0,0x1
     360:	000015b7          	lui	a1,0x1
     364:	01478693          	addi	a3,a5,20
     368:	010787b3          	add	a5,a5,a6
     36c:	00e686b3          	add	a3,a3,a4
     370:	00e78833          	add	a6,a5,a4
     374:	fec68793          	addi	a5,a3,-20
     378:	3a85a703          	lw	a4,936(a1) # 13a8 <VGA>
     37c:	6cf52e23          	sw	a5,1756(a0) # 16dc <pixel_index>
     380:	00f70733          	add	a4,a4,a5
     384:	00c70023          	sb	a2,0(a4)
     388:	00178793          	addi	a5,a5,1
     38c:	fef696e3          	bne	a3,a5,378 <draw_box+0x40>
     390:	14068693          	addi	a3,a3,320
     394:	ff0690e3          	bne	a3,a6,374 <draw_box+0x3c>
     398:	00008067          	ret

0000039c <check_collision>:
     39c:	000017b7          	lui	a5,0x1
     3a0:	3bc78793          	addi	a5,a5,956 # 13bc <snake>
     3a4:	0007a603          	lw	a2,0(a5)
     3a8:	ff010113          	addi	sp,sp,-16
     3ac:	00112623          	sw	ra,12(sp)
     3b0:	00b00713          	li	a4,11
     3b4:	06c76063          	bltu	a4,a2,414 <check_collision+0x78>
     3b8:	0047a503          	lw	a0,4(a5)
     3bc:	00f00713          	li	a4,15
     3c0:	04a76a63          	bltu	a4,a0,414 <check_collision+0x78>
     3c4:	00001737          	lui	a4,0x1
     3c8:	6f872583          	lw	a1,1784(a4) # 16f8 <snake_length>
     3cc:	00100713          	li	a4,1
     3d0:	00878793          	addi	a5,a5,8
     3d4:	02b74863          	blt	a4,a1,404 <check_collision+0x68>
     3d8:	00001537          	lui	a0,0x1
     3dc:	75450513          	addi	a0,a0,1876 # 1754 <random_number+0x54>
     3e0:	151000ef          	jal	d30 <print>
     3e4:	00000513          	li	a0,0
     3e8:	00c12083          	lw	ra,12(sp)
     3ec:	01010113          	addi	sp,sp,16
     3f0:	00008067          	ret
     3f4:	0047a683          	lw	a3,4(a5)
     3f8:	02d50863          	beq	a0,a3,428 <check_collision+0x8c>
     3fc:	00878793          	addi	a5,a5,8
     400:	fcb70ce3          	beq	a4,a1,3d8 <check_collision+0x3c>
     404:	0007a683          	lw	a3,0(a5)
     408:	00170713          	addi	a4,a4,1
     40c:	fed618e3          	bne	a2,a3,3fc <check_collision+0x60>
     410:	fe5ff06f          	j	3f4 <check_collision+0x58>
     414:	00001537          	lui	a0,0x1
     418:	72c50513          	addi	a0,a0,1836 # 172c <random_number+0x2c>
     41c:	115000ef          	jal	d30 <print>
     420:	00100513          	li	a0,1
     424:	fc5ff06f          	j	3e8 <check_collision+0x4c>
     428:	00001537          	lui	a0,0x1
     42c:	74050513          	addi	a0,a0,1856 # 1740 <random_number+0x40>
     430:	101000ef          	jal	d30 <print>
     434:	00100513          	li	a0,1
     438:	fb1ff06f          	j	3e8 <check_collision+0x4c>

0000043c <spawn_food>:
     43c:	fd010113          	addi	sp,sp,-48
     440:	02812423          	sw	s0,40(sp)
     444:	02912223          	sw	s1,36(sp)
     448:	80000437          	lui	s0,0x80000
     44c:	000034b7          	lui	s1,0x3
     450:	03212023          	sw	s2,32(sp)
     454:	01312e23          	sw	s3,28(sp)
     458:	01412c23          	sw	s4,24(sp)
     45c:	01512a23          	sw	s5,20(sp)
     460:	01612823          	sw	s6,16(sp)
     464:	01712623          	sw	s7,12(sp)
     468:	01812423          	sw	s8,8(sp)
     46c:	01912223          	sw	s9,4(sp)
     470:	01a12023          	sw	s10,0(sp)
     474:	02112623          	sw	ra,44(sp)
     478:	00001d37          	lui	s10,0x1
     47c:	000019b7          	lui	s3,0x1
     480:	00001937          	lui	s2,0x1
     484:	00001bb7          	lui	s7,0x1
     488:	00001a37          	lui	s4,0x1
     48c:	07300b13          	li	s6,115
     490:	03948493          	addi	s1,s1,57 # 3039 <__global_pointer+0x1494>
     494:	fff40413          	addi	s0,s0,-1 # 7fffffff <_stack_end+0x7fefe797>
     498:	00c00a93          	li	s5,12
     49c:	00001c37          	lui	s8,0x1
     4a0:	00002cb7          	lui	s9,0x2
     4a4:	700d2783          	lw	a5,1792(s10) # 1700 <random_number>
     4a8:	6f8ba583          	lw	a1,1784(s7) # 16f8 <snake_length>
     4ac:	03678533          	mul	a0,a5,s6
     4b0:	00178793          	addi	a5,a5,1
     4b4:	70fd2023          	sw	a5,1792(s10)
     4b8:	00950533          	add	a0,a0,s1
     4bc:	02856533          	rem	a0,a0,s0
     4c0:	03557633          	remu	a2,a0,s5
     4c4:	00f57513          	andi	a0,a0,15
     4c8:	6ea92823          	sw	a0,1776(s2) # 16f0 <food_y>
     4cc:	6ec9aa23          	sw	a2,1780(s3) # 16f4 <food_x>
     4d0:	04b05063          	blez	a1,510 <spawn_food+0xd4>
     4d4:	3bcc0793          	addi	a5,s8,956 # 13bc <snake>
     4d8:	00000713          	li	a4,0
     4dc:	00c0006f          	j	4e8 <spawn_food+0xac>
     4e0:	00878793          	addi	a5,a5,8
     4e4:	02b70663          	beq	a4,a1,510 <spawn_food+0xd4>
     4e8:	0007a683          	lw	a3,0(a5)
     4ec:	00170713          	addi	a4,a4,1
     4f0:	fed618e3          	bne	a2,a3,4e0 <spawn_food+0xa4>
     4f4:	0047a683          	lw	a3,4(a5)
     4f8:	fea694e3          	bne	a3,a0,4e0 <spawn_food+0xa4>
     4fc:	838c8513          	addi	a0,s9,-1992 # 1838 <random_number+0x138>
     500:	031000ef          	jal	d30 <print>
     504:	768a0513          	addi	a0,s4,1896 # 1768 <random_number+0x68>
     508:	029000ef          	jal	d30 <print>
     50c:	f99ff06f          	j	4a4 <spawn_food+0x68>
     510:	768a0513          	addi	a0,s4,1896
     514:	01d000ef          	jal	d30 <print>
     518:	6f49a703          	lw	a4,1780(s3)
     51c:	000027b7          	lui	a5,0x2
     520:	90078793          	addi	a5,a5,-1792 # 1900 <snakespeed+0x9c>
     524:	02f70733          	mul	a4,a4,a5
     528:	6f092683          	lw	a3,1776(s2)
     52c:	000027b7          	lui	a5,0x2
     530:	91478793          	addi	a5,a5,-1772 # 1914 <snakespeed+0xb0>
     534:	00269513          	slli	a0,a3,0x2
     538:	00d50533          	add	a0,a0,a3
     53c:	00251513          	slli	a0,a0,0x2
     540:	000015b7          	lui	a1,0x1
     544:	00001637          	lui	a2,0x1
     548:	00e50533          	add	a0,a0,a4
     54c:	01450693          	addi	a3,a0,20
     550:	00f50533          	add	a0,a0,a5
     554:	fec68793          	addi	a5,a3,-20
     558:	3a862703          	lw	a4,936(a2) # 13a8 <VGA>
     55c:	6cf5ae23          	sw	a5,1756(a1) # 16dc <pixel_index>
     560:	00f70733          	add	a4,a4,a5
     564:	00070023          	sb	zero,0(a4)
     568:	00178793          	addi	a5,a5,1
     56c:	fed796e3          	bne	a5,a3,558 <spawn_food+0x11c>
     570:	14078693          	addi	a3,a5,320
     574:	fed510e3          	bne	a0,a3,554 <spawn_food+0x118>
     578:	02812403          	lw	s0,40(sp)
     57c:	02c12083          	lw	ra,44(sp)
     580:	02412483          	lw	s1,36(sp)
     584:	02012903          	lw	s2,32(sp)
     588:	01c12983          	lw	s3,28(sp)
     58c:	01812a03          	lw	s4,24(sp)
     590:	01412a83          	lw	s5,20(sp)
     594:	01012b03          	lw	s6,16(sp)
     598:	00c12b83          	lw	s7,12(sp)
     59c:	00812c03          	lw	s8,8(sp)
     5a0:	00412c83          	lw	s9,4(sp)
     5a4:	00012d03          	lw	s10,0(sp)
     5a8:	00001537          	lui	a0,0x1
     5ac:	77450513          	addi	a0,a0,1908 # 1774 <random_number+0x74>
     5b0:	03010113          	addi	sp,sp,48
     5b4:	77c0006f          	j	d30 <print>

000005b8 <check_food_collision>:
     5b8:	000017b7          	lui	a5,0x1
     5bc:	3bc78793          	addi	a5,a5,956 # 13bc <snake>
     5c0:	00001737          	lui	a4,0x1
     5c4:	0007a683          	lw	a3,0(a5)
     5c8:	6f472703          	lw	a4,1780(a4) # 16f4 <food_x>
     5cc:	ff010113          	addi	sp,sp,-16
     5d0:	00812423          	sw	s0,8(sp)
     5d4:	00112623          	sw	ra,12(sp)
     5d8:	00001437          	lui	s0,0x1
     5dc:	02e68263          	beq	a3,a4,600 <check_food_collision+0x48>
     5e0:	6f842503          	lw	a0,1784(s0) # 16f8 <snake_length>
     5e4:	784000ef          	jal	d68 <print_dec>
     5e8:	00812403          	lw	s0,8(sp)
     5ec:	00c12083          	lw	ra,12(sp)
     5f0:	00001537          	lui	a0,0x1
     5f4:	79850513          	addi	a0,a0,1944 # 1798 <random_number+0x98>
     5f8:	01010113          	addi	sp,sp,16
     5fc:	7340006f          	j	d30 <print>
     600:	0047a703          	lw	a4,4(a5)
     604:	000017b7          	lui	a5,0x1
     608:	6f07a783          	lw	a5,1776(a5) # 16f0 <food_y>
     60c:	fcf71ae3          	bne	a4,a5,5e0 <check_food_collision+0x28>
     610:	00001537          	lui	a0,0x1
     614:	78450513          	addi	a0,a0,1924 # 1784 <random_number+0x84>
     618:	718000ef          	jal	d30 <print>
     61c:	000016b7          	lui	a3,0x1
     620:	6f842703          	lw	a4,1784(s0)
     624:	6e86a783          	lw	a5,1768(a3) # 16e8 <current_highscore>
     628:	00001637          	lui	a2,0x1
     62c:	00170713          	addi	a4,a4,1
     630:	00178793          	addi	a5,a5,1
     634:	00100593          	li	a1,1
     638:	6eb62623          	sw	a1,1772(a2) # 16ec <has_eaten>
     63c:	6ee42c23          	sw	a4,1784(s0)
     640:	6ef6a423          	sw	a5,1768(a3)
     644:	df9ff0ef          	jal	43c <spawn_food>
     648:	f99ff06f          	j	5e0 <check_food_collision+0x28>

0000064c <update_snake>:
     64c:	fe010113          	addi	sp,sp,-32
     650:	01312623          	sw	s3,12(sp)
     654:	000019b7          	lui	s3,0x1
     658:	6f89a583          	lw	a1,1784(s3) # 16f8 <snake_length>
     65c:	00001537          	lui	a0,0x1
     660:	01212823          	sw	s2,16(sp)
     664:	fff58793          	addi	a5,a1,-1
     668:	3bc50913          	addi	s2,a0,956 # 13bc <snake>
     66c:	00379713          	slli	a4,a5,0x3
     670:	00e90733          	add	a4,s2,a4
     674:	01412423          	sw	s4,8(sp)
     678:	00001a37          	lui	s4,0x1
     67c:	00072683          	lw	a3,0(a4)
     680:	6eca2803          	lw	a6,1772(s4) # 16ec <has_eaten>
     684:	00472703          	lw	a4,4(a4)
     688:	00112e23          	sw	ra,28(sp)
     68c:	00812c23          	sw	s0,24(sp)
     690:	00912a23          	sw	s1,20(sp)
     694:	00e68633          	add	a2,a3,a4
     698:	12081a63          	bnez	a6,7cc <update_snake+0x180>
     69c:	000027b7          	lui	a5,0x2
     6a0:	90078793          	addi	a5,a5,-1792 # 1900 <snakespeed+0x9c>
     6a4:	02f686b3          	mul	a3,a3,a5
     6a8:	00271593          	slli	a1,a4,0x2
     6ac:	00167613          	andi	a2,a2,1
     6b0:	00e585b3          	add	a1,a1,a4
     6b4:	40c00633          	neg	a2,a2
     6b8:	00259593          	slli	a1,a1,0x2
     6bc:	000027b7          	lui	a5,0x2
     6c0:	ff867613          	andi	a2,a2,-8
     6c4:	91478793          	addi	a5,a5,-1772 # 1914 <snakespeed+0xb0>
     6c8:	00a60613          	addi	a2,a2,10
     6cc:	00d585b3          	add	a1,a1,a3
     6d0:	01458693          	addi	a3,a1,20
     6d4:	000014b7          	lui	s1,0x1
     6d8:	00001437          	lui	s0,0x1
     6dc:	00f585b3          	add	a1,a1,a5
     6e0:	fec68793          	addi	a5,a3,-20
     6e4:	3a842703          	lw	a4,936(s0) # 13a8 <VGA>
     6e8:	6cf4ae23          	sw	a5,1756(s1) # 16dc <pixel_index>
     6ec:	00f70733          	add	a4,a4,a5
     6f0:	00c70023          	sb	a2,0(a4)
     6f4:	00178793          	addi	a5,a5,1
     6f8:	fef696e3          	bne	a3,a5,6e4 <update_snake+0x98>
     6fc:	14068693          	addi	a3,a3,320
     700:	feb690e3          	bne	a3,a1,6e0 <update_snake+0x94>
     704:	6f89a583          	lw	a1,1784(s3)
     708:	fff58793          	addi	a5,a1,-1
     70c:	02f05463          	blez	a5,734 <update_snake+0xe8>
     710:	00379793          	slli	a5,a5,0x3
     714:	00f907b3          	add	a5,s2,a5
     718:	3bc50913          	addi	s2,a0,956
     71c:	ffc7a683          	lw	a3,-4(a5)
     720:	ff87a703          	lw	a4,-8(a5)
     724:	ff878793          	addi	a5,a5,-8
     728:	00d7a623          	sw	a3,12(a5)
     72c:	00e7a423          	sw	a4,8(a5)
     730:	fef916e3          	bne	s2,a5,71c <update_snake+0xd0>
     734:	000017b7          	lui	a5,0x1
     738:	6fc7a683          	lw	a3,1788(a5) # 16fc <direction>
     73c:	00200513          	li	a0,2
     740:	00092603          	lw	a2,0(s2)
     744:	41f6d713          	srai	a4,a3,0x1f
     748:	01e75713          	srli	a4,a4,0x1e
     74c:	00e687b3          	add	a5,a3,a4
     750:	0037f793          	andi	a5,a5,3
     754:	40e787b3          	sub	a5,a5,a4
     758:	1ca78863          	beq	a5,a0,928 <__heap_size+0x128>
     75c:	00300713          	li	a4,3
     760:	1ae78e63          	beq	a5,a4,91c <__heap_size+0x11c>
     764:	0036f693          	andi	a3,a3,3
     768:	06068a63          	beqz	a3,7dc <update_snake+0x190>
     76c:	00100713          	li	a4,1
     770:	00e79663          	bne	a5,a4,77c <update_snake+0x130>
     774:	00160613          	addi	a2,a2,1
     778:	00c92023          	sw	a2,0(s2)
     77c:	00b00793          	li	a5,11
     780:	06c7e863          	bltu	a5,a2,7f0 <update_snake+0x1a4>
     784:	00492503          	lw	a0,4(s2)
     788:	00f00793          	li	a5,15
     78c:	06a7e263          	bltu	a5,a0,7f0 <update_snake+0x1a4>
     790:	00100713          	li	a4,1
     794:	00890793          	addi	a5,s2,8
     798:	00b74863          	blt	a4,a1,7a8 <update_snake+0x15c>
     79c:	1700006f          	j	90c <__heap_size+0x10c>
     7a0:	00878793          	addi	a5,a5,8
     7a4:	16b70463          	beq	a4,a1,90c <__heap_size+0x10c>
     7a8:	0007a683          	lw	a3,0(a5)
     7ac:	00170713          	addi	a4,a4,1
     7b0:	fec698e3          	bne	a3,a2,7a0 <update_snake+0x154>
     7b4:	0047a683          	lw	a3,4(a5)
     7b8:	fed514e3          	bne	a0,a3,7a0 <update_snake+0x154>
     7bc:	00001537          	lui	a0,0x1
     7c0:	74050513          	addi	a0,a0,1856 # 1740 <random_number+0x40>
     7c4:	56c000ef          	jal	d30 <print>
     7c8:	0340006f          	j	7fc <update_snake+0x1b0>
     7cc:	6e0a2623          	sw	zero,1772(s4)
     7d0:	000014b7          	lui	s1,0x1
     7d4:	00001437          	lui	s0,0x1
     7d8:	f35ff06f          	j	70c <update_snake+0xc0>
     7dc:	00492783          	lw	a5,4(s2)
     7e0:	00178793          	addi	a5,a5,1
     7e4:	00f92223          	sw	a5,4(s2)
     7e8:	00b00793          	li	a5,11
     7ec:	f8c7fce3          	bgeu	a5,a2,784 <update_snake+0x138>
     7f0:	00001537          	lui	a0,0x1
     7f4:	72c50513          	addi	a0,a0,1836 # 172c <random_number+0x2c>
     7f8:	538000ef          	jal	d30 <print>
     7fc:	000017b7          	lui	a5,0x1
     800:	00001737          	lui	a4,0x1
     804:	6e872703          	lw	a4,1768(a4) # 16e8 <current_highscore>
     808:	6e47a683          	lw	a3,1764(a5) # 16e4 <highest_score>
     80c:	00001637          	lui	a2,0x1
     810:	00100593          	li	a1,1
     814:	6eb62023          	sw	a1,1760(a2) # 16e0 <gameover>
     818:	00e6d463          	bge	a3,a4,820 <__heap_size+0x20>
     81c:	6ee7a223          	sw	a4,1764(a5)
     820:	000017b7          	lui	a5,0x1
     824:	00092703          	lw	a4,0(s2)
     828:	6f47a783          	lw	a5,1780(a5) # 16f4 <food_x>
     82c:	08f70c63          	beq	a4,a5,8c4 <__heap_size+0xc4>
     830:	6f89a503          	lw	a0,1784(s3)
     834:	534000ef          	jal	d68 <print_dec>
     838:	00001537          	lui	a0,0x1
     83c:	79850513          	addi	a0,a0,1944 # 1798 <random_number+0x98>
     840:	4f0000ef          	jal	d30 <print>
     844:	00092603          	lw	a2,0(s2)
     848:	000027b7          	lui	a5,0x2
     84c:	90078793          	addi	a5,a5,-1792 # 1900 <snakespeed+0x9c>
     850:	02f60633          	mul	a2,a2,a5
     854:	00492683          	lw	a3,4(s2)
     858:	00002737          	lui	a4,0x2
     85c:	91470713          	addi	a4,a4,-1772 # 1914 <snakespeed+0xb0>
     860:	00269793          	slli	a5,a3,0x2
     864:	00d787b3          	add	a5,a5,a3
     868:	00279793          	slli	a5,a5,0x2
     86c:	00f60633          	add	a2,a2,a5
     870:	01460693          	addi	a3,a2,20
     874:	00e60633          	add	a2,a2,a4
     878:	fec68793          	addi	a5,a3,-20
     87c:	3a842703          	lw	a4,936(s0) # 13a8 <VGA>
     880:	6cf4ae23          	sw	a5,1756(s1) # 16dc <pixel_index>
     884:	00f70733          	add	a4,a4,a5
     888:	00070023          	sb	zero,0(a4)
     88c:	00178793          	addi	a5,a5,1
     890:	fed796e3          	bne	a5,a3,87c <__heap_size+0x7c>
     894:	14078693          	addi	a3,a5,320
     898:	fed610e3          	bne	a2,a3,878 <__heap_size+0x78>
     89c:	01812403          	lw	s0,24(sp)
     8a0:	01c12083          	lw	ra,28(sp)
     8a4:	01412483          	lw	s1,20(sp)
     8a8:	01012903          	lw	s2,16(sp)
     8ac:	00c12983          	lw	s3,12(sp)
     8b0:	00812a03          	lw	s4,8(sp)
     8b4:	00001537          	lui	a0,0x1
     8b8:	7b050513          	addi	a0,a0,1968 # 17b0 <random_number+0xb0>
     8bc:	02010113          	addi	sp,sp,32
     8c0:	4700006f          	j	d30 <print>
     8c4:	000017b7          	lui	a5,0x1
     8c8:	00492703          	lw	a4,4(s2)
     8cc:	6f07a783          	lw	a5,1776(a5) # 16f0 <food_y>
     8d0:	f6f710e3          	bne	a4,a5,830 <__heap_size+0x30>
     8d4:	00001537          	lui	a0,0x1
     8d8:	78450513          	addi	a0,a0,1924 # 1784 <random_number+0x84>
     8dc:	454000ef          	jal	d30 <print>
     8e0:	000016b7          	lui	a3,0x1
     8e4:	6f89a703          	lw	a4,1784(s3)
     8e8:	6e86a783          	lw	a5,1768(a3) # 16e8 <current_highscore>
     8ec:	00100613          	li	a2,1
     8f0:	00170713          	addi	a4,a4,1
     8f4:	00178793          	addi	a5,a5,1
     8f8:	6eca2623          	sw	a2,1772(s4)
     8fc:	6ee9ac23          	sw	a4,1784(s3)
     900:	6ef6a423          	sw	a5,1768(a3)
     904:	b39ff0ef          	jal	43c <spawn_food>
     908:	f29ff06f          	j	830 <__heap_size+0x30>
     90c:	00001537          	lui	a0,0x1
     910:	75450513          	addi	a0,a0,1876 # 1754 <random_number+0x54>
     914:	41c000ef          	jal	d30 <print>
     918:	f09ff06f          	j	820 <__heap_size+0x20>
     91c:	fff60613          	addi	a2,a2,-1
     920:	00c92023          	sw	a2,0(s2)
     924:	e59ff06f          	j	77c <update_snake+0x130>
     928:	00492783          	lw	a5,4(s2)
     92c:	fff78793          	addi	a5,a5,-1
     930:	00f92223          	sw	a5,4(s2)
     934:	e49ff06f          	j	77c <update_snake+0x130>

00000938 <handle_interrupt>:
     938:	01000793          	li	a5,16
     93c:	00f50463          	beq	a0,a5,944 <handle_interrupt+0xc>
     940:	00008067          	ret
     944:	000015b7          	lui	a1,0x1
     948:	3ac5a783          	lw	a5,940(a1) # 13ac <timeoutcount>
     94c:	04000737          	lui	a4,0x4000
     950:	02075683          	lhu	a3,32(a4) # 4000020 <_stack_end+0x3efe7b8>
     954:	00010637          	lui	a2,0x10
     958:	ffe60613          	addi	a2,a2,-2 # fffe <__global_pointer+0xe459>
     95c:	00178793          	addi	a5,a5,1
     960:	00c6f6b3          	and	a3,a3,a2
     964:	3af5a623          	sw	a5,940(a1)
     968:	00100613          	li	a2,1
     96c:	02d71023          	sh	a3,32(a4)
     970:	fcf658e3          	bge	a2,a5,940 <handle_interrupt+0x8>
     974:	000017b7          	lui	a5,0x1
     978:	6e07a783          	lw	a5,1760(a5) # 16e0 <gameover>
     97c:	fc0792e3          	bnez	a5,940 <handle_interrupt+0x8>
     980:	00001737          	lui	a4,0x1
     984:	70072783          	lw	a5,1792(a4) # 1700 <random_number>
     988:	3a05a623          	sw	zero,940(a1)
     98c:	07a00693          	li	a3,122
     990:	00178793          	addi	a5,a5,1
     994:	00f6d463          	bge	a3,a5,99c <handle_interrupt+0x64>
     998:	00100793          	li	a5,1
     99c:	70f72023          	sw	a5,1792(a4)
     9a0:	cadff06f          	j	64c <update_snake>

000009a4 <game_over>:
     9a4:	000017b7          	lui	a5,0x1
     9a8:	00001737          	lui	a4,0x1
     9ac:	6e872703          	lw	a4,1768(a4) # 16e8 <current_highscore>
     9b0:	6e47a683          	lw	a3,1764(a5) # 16e4 <highest_score>
     9b4:	00001637          	lui	a2,0x1
     9b8:	00100593          	li	a1,1
     9bc:	6eb62023          	sw	a1,1760(a2) # 16e0 <gameover>
     9c0:	00e6d463          	bge	a3,a4,9c8 <game_over+0x24>
     9c4:	6ee7a223          	sw	a4,1764(a5)
     9c8:	00008067          	ret

000009cc <init_snake>:
     9cc:	00001737          	lui	a4,0x1
     9d0:	00300693          	li	a3,3
     9d4:	6ed72c23          	sw	a3,1784(a4) # 16f8 <snake_length>
     9d8:	00001737          	lui	a4,0x1
     9dc:	27000693          	li	a3,624
     9e0:	000018b7          	lui	a7,0x1
     9e4:	6ed72e23          	sw	a3,1788(a4) # 16fc <direction>
     9e8:	00001737          	lui	a4,0x1
     9ec:	3bc88893          	addi	a7,a7,956 # 13bc <snake>
     9f0:	6e072623          	sw	zero,1772(a4) # 16ec <has_eaten>
     9f4:	00800713          	li	a4,8
     9f8:	00600793          	li	a5,6
     9fc:	00002eb7          	lui	t4,0x2
     a00:	ffffefb7          	lui	t6,0xffffe
     a04:	00002f37          	lui	t5,0x2
     a08:	00e8a223          	sw	a4,4(a7)
     a0c:	00700713          	li	a4,7
     a10:	00f8a023          	sw	a5,0(a7)
     a14:	00f8a423          	sw	a5,8(a7)
     a18:	00e8a623          	sw	a4,12(a7)
     a1c:	00f8a823          	sw	a5,16(a7)
     a20:	00f8aa23          	sw	a5,20(a7)
     a24:	914e8e93          	addi	t4,t4,-1772 # 1914 <snakespeed+0xb0>
     a28:	00000e13          	li	t3,0
     a2c:	00001637          	lui	a2,0x1
     a30:	000015b7          	lui	a1,0x1
     a34:	700f8f93          	addi	t6,t6,1792 # ffffe700 <_stack_end+0xffefce98>
     a38:	900f0f13          	addi	t5,t5,-1792 # 1900 <snakespeed+0x9c>
     a3c:	00c00393          	li	t2,12
     a40:	000e8813          	mv	a6,t4
     a44:	000e0313          	mv	t1,t3
     a48:	010e0293          	addi	t0,t3,16
     a4c:	00137513          	andi	a0,t1,1
     a50:	40a00533          	neg	a0,a0
     a54:	ff857513          	andi	a0,a0,-8
     a58:	00a50513          	addi	a0,a0,10
     a5c:	01f806b3          	add	a3,a6,t6
     a60:	fec68793          	addi	a5,a3,-20
     a64:	3a85a703          	lw	a4,936(a1) # 13a8 <VGA>
     a68:	6cf62e23          	sw	a5,1756(a2) # 16dc <pixel_index>
     a6c:	00f70733          	add	a4,a4,a5
     a70:	00a70023          	sb	a0,0(a4)
     a74:	00178793          	addi	a5,a5,1
     a78:	fed796e3          	bne	a5,a3,a64 <init_snake+0x98>
     a7c:	14078693          	addi	a3,a5,320
     a80:	ff0690e3          	bne	a3,a6,a60 <init_snake+0x94>
     a84:	00130313          	addi	t1,t1,1
     a88:	15478813          	addi	a6,a5,340
     a8c:	fc5310e3          	bne	t1,t0,a4c <init_snake+0x80>
     a90:	001e0e13          	addi	t3,t3,1
     a94:	01ee8eb3          	add	t4,t4,t5
     a98:	fa7e14e3          	bne	t3,t2,a40 <init_snake+0x74>
     a9c:	0008a683          	lw	a3,0(a7)
     aa0:	0048a503          	lw	a0,4(a7)
     aa4:	00002737          	lui	a4,0x2
     aa8:	03e686b3          	mul	a3,a3,t5
     aac:	00251793          	slli	a5,a0,0x2
     ab0:	00a787b3          	add	a5,a5,a0
     ab4:	00279793          	slli	a5,a5,0x2
     ab8:	91470713          	addi	a4,a4,-1772 # 1914 <snakespeed+0xb0>
     abc:	fff00813          	li	a6,-1
     ac0:	00d787b3          	add	a5,a5,a3
     ac4:	01478513          	addi	a0,a5,20
     ac8:	00e786b3          	add	a3,a5,a4
     acc:	fec50793          	addi	a5,a0,-20
     ad0:	3a85a703          	lw	a4,936(a1)
     ad4:	6cf62e23          	sw	a5,1756(a2)
     ad8:	00f70733          	add	a4,a4,a5
     adc:	01070023          	sb	a6,0(a4)
     ae0:	00178793          	addi	a5,a5,1
     ae4:	fea796e3          	bne	a5,a0,ad0 <init_snake+0x104>
     ae8:	14078513          	addi	a0,a5,320
     aec:	fed510e3          	bne	a0,a3,acc <init_snake+0x100>
     af0:	0088a683          	lw	a3,8(a7)
     af4:	000027b7          	lui	a5,0x2
     af8:	90078793          	addi	a5,a5,-1792 # 1900 <snakespeed+0x9c>
     afc:	02f686b3          	mul	a3,a3,a5
     b00:	00c8a503          	lw	a0,12(a7)
     b04:	00002737          	lui	a4,0x2
     b08:	91470713          	addi	a4,a4,-1772 # 1914 <snakespeed+0xb0>
     b0c:	00251793          	slli	a5,a0,0x2
     b10:	00a787b3          	add	a5,a5,a0
     b14:	00279793          	slli	a5,a5,0x2
     b18:	fff00813          	li	a6,-1
     b1c:	00d787b3          	add	a5,a5,a3
     b20:	01478513          	addi	a0,a5,20
     b24:	00e786b3          	add	a3,a5,a4
     b28:	fec50793          	addi	a5,a0,-20
     b2c:	3a85a703          	lw	a4,936(a1)
     b30:	6cf62e23          	sw	a5,1756(a2)
     b34:	00f70733          	add	a4,a4,a5
     b38:	01070023          	sb	a6,0(a4)
     b3c:	00178793          	addi	a5,a5,1
     b40:	fea796e3          	bne	a5,a0,b2c <init_snake+0x160>
     b44:	14078513          	addi	a0,a5,320
     b48:	fed510e3          	bne	a0,a3,b28 <init_snake+0x15c>
     b4c:	0108a683          	lw	a3,16(a7)
     b50:	000027b7          	lui	a5,0x2
     b54:	90078793          	addi	a5,a5,-1792 # 1900 <snakespeed+0x9c>
     b58:	02f686b3          	mul	a3,a3,a5
     b5c:	0148a503          	lw	a0,20(a7)
     b60:	00002737          	lui	a4,0x2
     b64:	91470713          	addi	a4,a4,-1772 # 1914 <snakespeed+0xb0>
     b68:	00251793          	slli	a5,a0,0x2
     b6c:	00a787b3          	add	a5,a5,a0
     b70:	00279793          	slli	a5,a5,0x2
     b74:	fff00813          	li	a6,-1
     b78:	00d787b3          	add	a5,a5,a3
     b7c:	01478513          	addi	a0,a5,20
     b80:	00e786b3          	add	a3,a5,a4
     b84:	fec50793          	addi	a5,a0,-20
     b88:	3a85a703          	lw	a4,936(a1)
     b8c:	6cf62e23          	sw	a5,1756(a2)
     b90:	00f70733          	add	a4,a4,a5
     b94:	01070023          	sb	a6,0(a4)
     b98:	00178793          	addi	a5,a5,1
     b9c:	fef516e3          	bne	a0,a5,b88 <init_snake+0x1bc>
     ba0:	14050513          	addi	a0,a0,320
     ba4:	fea690e3          	bne	a3,a0,b84 <init_snake+0x1b8>
     ba8:	895ff06f          	j	43c <spawn_food>

00000bac <labinit>:
     bac:	04000737          	lui	a4,0x4000
     bb0:	ffffc637          	lui	a2,0xffffc
     bb4:	0e072223          	sw	zero,228(a4) # 40000e4 <_stack_end+0x3efe87c>
     bb8:	040007b7          	lui	a5,0x4000
     bbc:	6bf60613          	addi	a2,a2,1727 # ffffc6bf <_stack_end+0xffefae57>
     bc0:	02c79423          	sh	a2,40(a5) # 4000028 <_stack_end+0x3efe7c0>
     bc4:	040006b7          	lui	a3,0x4000
     bc8:	02d00613          	li	a2,45
     bcc:	040007b7          	lui	a5,0x4000
     bd0:	02c69623          	sh	a2,44(a3) # 400002c <_stack_end+0x3efe7c4>
     bd4:	00700713          	li	a4,7
     bd8:	02e79223          	sh	a4,36(a5) # 4000024 <_stack_end+0x3efe7bc>
     bdc:	30486073          	csrsi	mie,16
     be0:	3001e073          	csrsi	mstatus,3
     be4:	00008067          	ret

00000be8 <main>:
     be8:	fe010113          	addi	sp,sp,-32
     bec:	00112e23          	sw	ra,28(sp)
     bf0:	00812c23          	sw	s0,24(sp)
     bf4:	00912a23          	sw	s1,20(sp)
     bf8:	01212823          	sw	s2,16(sp)
     bfc:	01312623          	sw	s3,12(sp)
     c00:	01412423          	sw	s4,8(sp)
     c04:	01512223          	sw	s5,4(sp)
     c08:	01612023          	sw	s6,0(sp)
     c0c:	04000737          	lui	a4,0x4000
     c10:	ffffc637          	lui	a2,0xffffc
     c14:	0e072223          	sw	zero,228(a4) # 40000e4 <_stack_end+0x3efe87c>
     c18:	040007b7          	lui	a5,0x4000
     c1c:	6bf60613          	addi	a2,a2,1727 # ffffc6bf <_stack_end+0xffefae57>
     c20:	02c79423          	sh	a2,40(a5) # 4000028 <_stack_end+0x3efe7c0>
     c24:	040006b7          	lui	a3,0x4000
     c28:	02d00613          	li	a2,45
     c2c:	040007b7          	lui	a5,0x4000
     c30:	02c69623          	sh	a2,44(a3) # 400002c <_stack_end+0x3efe7c4>
     c34:	00700713          	li	a4,7
     c38:	02e79223          	sh	a4,36(a5) # 4000024 <_stack_end+0x3efe7bc>
     c3c:	30486073          	csrsi	mie,16
     c40:	3001e073          	csrsi	mstatus,3
     c44:	04000437          	lui	s0,0x4000
     c48:	04000a37          	lui	s4,0x4000
     c4c:	d81ff0ef          	jal	9cc <init_snake>
     c50:	00000b13          	li	s6,0
     c54:	00000a93          	li	s5,0
     c58:	000019b7          	lui	s3,0x1
     c5c:	00001937          	lui	s2,0x1
     c60:	000014b7          	lui	s1,0x1
     c64:	0d040413          	addi	s0,s0,208 # 40000d0 <_stack_end+0x3efe868>
     c68:	0e0a0a13          	addi	s4,s4,224 # 40000e0 <_stack_end+0x3efe878>
     c6c:	03c0006f          	j	ca8 <main+0xc0>
     c70:	6fc4a783          	lw	a5,1788(s1) # 16fc <direction>
     c74:	00100a93          	li	s5,1
     c78:	00178793          	addi	a5,a5,1
     c7c:	6ef4ae23          	sw	a5,1788(s1)
     c80:	000a2783          	lw	a5,0(s4)
     c84:	0027f793          	andi	a5,a5,2
     c88:	0167e7b3          	or	a5,a5,s6
     c8c:	04079c63          	bnez	a5,ce4 <main+0xfc>
     c90:	6fc4a783          	lw	a5,1788(s1)
     c94:	00100b13          	li	s6,1
     c98:	fff78793          	addi	a5,a5,-1
     c9c:	6ef4ae23          	sw	a5,1788(s1)
     ca0:	00a00513          	li	a0,10
     ca4:	560000ef          	jal	1204 <delay>
     ca8:	00042783          	lw	a5,0(s0)
     cac:	0017f793          	andi	a5,a5,1
     cb0:	04079663          	bnez	a5,cfc <main+0x114>
     cb4:	000a2783          	lw	a5,0(s4)
     cb8:	0017f793          	andi	a5,a5,1
     cbc:	0157e7b3          	or	a5,a5,s5
     cc0:	fa0788e3          	beqz	a5,c70 <main+0x88>
     cc4:	000a2783          	lw	a5,0(s4)
     cc8:	0017f793          	andi	a5,a5,1
     ccc:	fff78793          	addi	a5,a5,-1
     cd0:	00fafab3          	and	s5,s5,a5
     cd4:	000a2783          	lw	a5,0(s4)
     cd8:	0027f793          	andi	a5,a5,2
     cdc:	0167e7b3          	or	a5,a5,s6
     ce0:	fa0788e3          	beqz	a5,c90 <main+0xa8>
     ce4:	000a2783          	lw	a5,0(s4)
     ce8:	0027f793          	andi	a5,a5,2
     cec:	0017b793          	seqz	a5,a5
     cf0:	40f007b3          	neg	a5,a5
     cf4:	00fb7b33          	and	s6,s6,a5
     cf8:	fa9ff06f          	j	ca0 <main+0xb8>
     cfc:	cd1ff0ef          	jal	9cc <init_snake>
     d00:	7c090513          	addi	a0,s2,1984 # 17c0 <random_number+0xc0>
     d04:	6e09a023          	sw	zero,1760(s3) # 16e0 <gameover>
     d08:	028000ef          	jal	d30 <print>
     d0c:	fa9ff06f          	j	cb4 <main+0xcc>

00000d10 <printc>:
     d10:	04000737          	lui	a4,0x4000
     d14:	04470713          	addi	a4,a4,68 # 4000044 <_stack_end+0x3efe7dc>
     d18:	000106b7          	lui	a3,0x10
     d1c:	00072783          	lw	a5,0(a4)
     d20:	fed7eee3          	bltu	a5,a3,d1c <printc+0xc>
     d24:	040007b7          	lui	a5,0x4000
     d28:	04a7a023          	sw	a0,64(a5) # 4000040 <_stack_end+0x3efe7d8>
     d2c:	00008067          	ret

00000d30 <print>:
     d30:	00054603          	lbu	a2,0(a0)
     d34:	02060863          	beqz	a2,d64 <print+0x34>
     d38:	04000737          	lui	a4,0x4000
     d3c:	040005b7          	lui	a1,0x4000
     d40:	04470713          	addi	a4,a4,68 # 4000044 <_stack_end+0x3efe7dc>
     d44:	000106b7          	lui	a3,0x10
     d48:	04058593          	addi	a1,a1,64 # 4000040 <_stack_end+0x3efe7d8>
     d4c:	00072783          	lw	a5,0(a4)
     d50:	fed7eee3          	bltu	a5,a3,d4c <print+0x1c>
     d54:	00c5a023          	sw	a2,0(a1)
     d58:	00154603          	lbu	a2,1(a0)
     d5c:	00150513          	addi	a0,a0,1
     d60:	fe0616e3          	bnez	a2,d4c <print+0x1c>
     d64:	00008067          	ret

00000d68 <print_dec>:
     d68:	3b9ad737          	lui	a4,0x3b9ad
     d6c:	040006b7          	lui	a3,0x4000
     d70:	04000337          	lui	t1,0x4000
     d74:	00a00593          	li	a1,10
     d78:	00000793          	li	a5,0
     d7c:	a0070713          	addi	a4,a4,-1536 # 3b9aca00 <_stack_end+0x3b8ab198>
     d80:	04468693          	addi	a3,a3,68 # 4000044 <_stack_end+0x3efe7dc>
     d84:	00010637          	lui	a2,0x10
     d88:	04030313          	addi	t1,t1,64 # 4000040 <_stack_end+0x3efe7d8>
     d8c:	00a00893          	li	a7,10
     d90:	04e57063          	bgeu	a0,a4,dd0 <print_dec+0x68>
     d94:	02079e63          	bnez	a5,dd0 <print_dec+0x68>
     d98:	fff58593          	addi	a1,a1,-1
     d9c:	02e57533          	remu	a0,a0,a4
     da0:	03175733          	divu	a4,a4,a7
     da4:	fe0596e3          	bnez	a1,d90 <print_dec+0x28>
     da8:	02079263          	bnez	a5,dcc <print_dec+0x64>
     dac:	04000737          	lui	a4,0x4000
     db0:	04470713          	addi	a4,a4,68 # 4000044 <_stack_end+0x3efe7dc>
     db4:	000106b7          	lui	a3,0x10
     db8:	00072783          	lw	a5,0(a4)
     dbc:	fed7eee3          	bltu	a5,a3,db8 <print_dec+0x50>
     dc0:	040007b7          	lui	a5,0x4000
     dc4:	03000713          	li	a4,48
     dc8:	04e7a023          	sw	a4,64(a5) # 4000040 <_stack_end+0x3efe7d8>
     dcc:	00008067          	ret
     dd0:	02e55833          	divu	a6,a0,a4
     dd4:	03080813          	addi	a6,a6,48
     dd8:	0ff87813          	zext.b	a6,a6
     ddc:	0006a783          	lw	a5,0(a3) # 10000 <__global_pointer+0xe45b>
     de0:	fec7eee3          	bltu	a5,a2,ddc <print_dec+0x74>
     de4:	01032023          	sw	a6,0(t1)
     de8:	00100793          	li	a5,1
     dec:	fadff06f          	j	d98 <print_dec+0x30>

00000df0 <print_hex32>:
     df0:	04000737          	lui	a4,0x4000
     df4:	04470713          	addi	a4,a4,68 # 4000044 <_stack_end+0x3efe7dc>
     df8:	000106b7          	lui	a3,0x10
     dfc:	00072783          	lw	a5,0(a4)
     e00:	fed7eee3          	bltu	a5,a3,dfc <print_hex32+0xc>
     e04:	03000693          	li	a3,48
     e08:	040007b7          	lui	a5,0x4000
     e0c:	04000737          	lui	a4,0x4000
     e10:	04d7a023          	sw	a3,64(a5) # 4000040 <_stack_end+0x3efe7d8>
     e14:	04470713          	addi	a4,a4,68 # 4000044 <_stack_end+0x3efe7dc>
     e18:	000106b7          	lui	a3,0x10
     e1c:	00072783          	lw	a5,0(a4)
     e20:	fed7eee3          	bltu	a5,a3,e1c <print_hex32+0x2c>
     e24:	04000837          	lui	a6,0x4000
     e28:	04080813          	addi	a6,a6,64 # 4000040 <_stack_end+0x3efe7d8>
     e2c:	04000737          	lui	a4,0x4000
     e30:	07800793          	li	a5,120
     e34:	00f82023          	sw	a5,0(a6)
     e38:	01c00613          	li	a2,28
     e3c:	00900313          	li	t1,9
     e40:	04470713          	addi	a4,a4,68 # 4000044 <_stack_end+0x3efe7dc>
     e44:	000106b7          	lui	a3,0x10
     e48:	ffc00893          	li	a7,-4
     e4c:	00c557b3          	srl	a5,a0,a2
     e50:	00f7f793          	andi	a5,a5,15
     e54:	03778593          	addi	a1,a5,55
     e58:	00f36463          	bltu	t1,a5,e60 <print_hex32+0x70>
     e5c:	03078593          	addi	a1,a5,48
     e60:	00072783          	lw	a5,0(a4)
     e64:	fed7eee3          	bltu	a5,a3,e60 <print_hex32+0x70>
     e68:	00b82023          	sw	a1,0(a6)
     e6c:	ffc60613          	addi	a2,a2,-4 # fffc <__global_pointer+0xe457>
     e70:	fd161ee3          	bne	a2,a7,e4c <print_hex32+0x5c>
     e74:	00008067          	ret

00000e78 <handle_exception>:
     e78:	00200793          	li	a5,2
     e7c:	18f80863          	beq	a6,a5,100c <handle_exception+0x194>
     e80:	00b00793          	li	a5,11
     e84:	12f80063          	beq	a6,a5,fa4 <handle_exception+0x12c>
     e88:	04000737          	lui	a4,0x4000
     e8c:	14081463          	bnez	a6,fd4 <handle_exception+0x15c>
     e90:	04000837          	lui	a6,0x4000
     e94:	00001637          	lui	a2,0x1
     e98:	7c860613          	addi	a2,a2,1992 # 17c8 <random_number+0xc8>
     e9c:	00a00593          	li	a1,10
     ea0:	04470713          	addi	a4,a4,68 # 4000044 <_stack_end+0x3efe7dc>
     ea4:	000106b7          	lui	a3,0x10
     ea8:	04080813          	addi	a6,a6,64 # 4000040 <_stack_end+0x3efe7d8>
     eac:	00072783          	lw	a5,0(a4)
     eb0:	fed7eee3          	bltu	a5,a3,eac <handle_exception+0x34>
     eb4:	00b82023          	sw	a1,0(a6)
     eb8:	00164583          	lbu	a1,1(a2)
     ebc:	00160613          	addi	a2,a2,1
     ec0:	fe0596e3          	bnez	a1,eac <handle_exception+0x34>
     ec4:	04000737          	lui	a4,0x4000
     ec8:	04000837          	lui	a6,0x4000
     ecc:	00002637          	lui	a2,0x2
     ed0:	83c60613          	addi	a2,a2,-1988 # 183c <random_number+0x13c>
     ed4:	04500593          	li	a1,69
     ed8:	04470713          	addi	a4,a4,68 # 4000044 <_stack_end+0x3efe7dc>
     edc:	000106b7          	lui	a3,0x10
     ee0:	04080813          	addi	a6,a6,64 # 4000040 <_stack_end+0x3efe7d8>
     ee4:	00072783          	lw	a5,0(a4)
     ee8:	fed7eee3          	bltu	a5,a3,ee4 <handle_exception+0x6c>
     eec:	00b82023          	sw	a1,0(a6)
     ef0:	00164583          	lbu	a1,1(a2)
     ef4:	00160613          	addi	a2,a2,1
     ef8:	fe0596e3          	bnez	a1,ee4 <handle_exception+0x6c>
     efc:	04000737          	lui	a4,0x4000
     f00:	04470713          	addi	a4,a4,68 # 4000044 <_stack_end+0x3efe7dc>
     f04:	000106b7          	lui	a3,0x10
     f08:	00072783          	lw	a5,0(a4)
     f0c:	fed7eee3          	bltu	a5,a3,f08 <handle_exception+0x90>
     f10:	03000693          	li	a3,48
     f14:	040007b7          	lui	a5,0x4000
     f18:	04000737          	lui	a4,0x4000
     f1c:	04d7a023          	sw	a3,64(a5) # 4000040 <_stack_end+0x3efe7d8>
     f20:	04470713          	addi	a4,a4,68 # 4000044 <_stack_end+0x3efe7dc>
     f24:	000106b7          	lui	a3,0x10
     f28:	00072783          	lw	a5,0(a4)
     f2c:	fed7eee3          	bltu	a5,a3,f28 <handle_exception+0xb0>
     f30:	04000837          	lui	a6,0x4000
     f34:	04080813          	addi	a6,a6,64 # 4000040 <_stack_end+0x3efe7d8>
     f38:	04000737          	lui	a4,0x4000
     f3c:	07800793          	li	a5,120
     f40:	00f82023          	sw	a5,0(a6)
     f44:	01c00613          	li	a2,28
     f48:	00900313          	li	t1,9
     f4c:	04470713          	addi	a4,a4,68 # 4000044 <_stack_end+0x3efe7dc>
     f50:	000106b7          	lui	a3,0x10
     f54:	ffc00893          	li	a7,-4
     f58:	00c557b3          	srl	a5,a0,a2
     f5c:	00f7f793          	andi	a5,a5,15
     f60:	03778593          	addi	a1,a5,55
     f64:	00f36463          	bltu	t1,a5,f6c <handle_exception+0xf4>
     f68:	03078593          	addi	a1,a5,48
     f6c:	00072783          	lw	a5,0(a4)
     f70:	fed7eee3          	bltu	a5,a3,f6c <handle_exception+0xf4>
     f74:	00b82023          	sw	a1,0(a6)
     f78:	ffc60613          	addi	a2,a2,-4
     f7c:	fd161ee3          	bne	a2,a7,f58 <handle_exception+0xe0>
     f80:	04000737          	lui	a4,0x4000
     f84:	04470713          	addi	a4,a4,68 # 4000044 <_stack_end+0x3efe7dc>
     f88:	000106b7          	lui	a3,0x10
     f8c:	00072783          	lw	a5,0(a4)
     f90:	fed7eee3          	bltu	a5,a3,f8c <handle_exception+0x114>
     f94:	040007b7          	lui	a5,0x4000
     f98:	00a00713          	li	a4,10
     f9c:	04e7a023          	sw	a4,64(a5) # 4000040 <_stack_end+0x3efe7d8>
     fa0:	0000006f          	j	fa0 <handle_exception+0x128>
     fa4:	00400793          	li	a5,4
     fa8:	0af88063          	beq	a7,a5,1048 <handle_exception+0x1d0>
     fac:	0d089a63          	bne	a7,a6,1080 <handle_exception+0x208>
     fb0:	04000737          	lui	a4,0x4000
     fb4:	04470713          	addi	a4,a4,68 # 4000044 <_stack_end+0x3efe7dc>
     fb8:	000106b7          	lui	a3,0x10
     fbc:	00072783          	lw	a5,0(a4)
     fc0:	fed7eee3          	bltu	a5,a3,fbc <handle_exception+0x144>
     fc4:	040007b7          	lui	a5,0x4000
     fc8:	0ff57513          	zext.b	a0,a0
     fcc:	04a7a023          	sw	a0,64(a5) # 4000040 <_stack_end+0x3efe7d8>
     fd0:	00008067          	ret
     fd4:	04000837          	lui	a6,0x4000
     fd8:	00002637          	lui	a2,0x2
     fdc:	81c60613          	addi	a2,a2,-2020 # 181c <random_number+0x11c>
     fe0:	00a00593          	li	a1,10
     fe4:	04470713          	addi	a4,a4,68
     fe8:	000106b7          	lui	a3,0x10
     fec:	04080813          	addi	a6,a6,64 # 4000040 <_stack_end+0x3efe7d8>
     ff0:	00072783          	lw	a5,0(a4)
     ff4:	fed7eee3          	bltu	a5,a3,ff0 <handle_exception+0x178>
     ff8:	00b82023          	sw	a1,0(a6)
     ffc:	00164583          	lbu	a1,1(a2)
    1000:	00160613          	addi	a2,a2,1
    1004:	fe0596e3          	bnez	a1,ff0 <handle_exception+0x178>
    1008:	ebdff06f          	j	ec4 <handle_exception+0x4c>
    100c:	04000737          	lui	a4,0x4000
    1010:	04000837          	lui	a6,0x4000
    1014:	00001637          	lui	a2,0x1
    1018:	7f860613          	addi	a2,a2,2040 # 17f8 <random_number+0xf8>
    101c:	00a00593          	li	a1,10
    1020:	04470713          	addi	a4,a4,68 # 4000044 <_stack_end+0x3efe7dc>
    1024:	000106b7          	lui	a3,0x10
    1028:	04080813          	addi	a6,a6,64 # 4000040 <_stack_end+0x3efe7d8>
    102c:	00072783          	lw	a5,0(a4)
    1030:	fed7eee3          	bltu	a5,a3,102c <handle_exception+0x1b4>
    1034:	00b82023          	sw	a1,0(a6)
    1038:	00164583          	lbu	a1,1(a2)
    103c:	00160613          	addi	a2,a2,1
    1040:	fe0596e3          	bnez	a1,102c <handle_exception+0x1b4>
    1044:	e81ff06f          	j	ec4 <handle_exception+0x4c>
    1048:	00054603          	lbu	a2,0(a0)
    104c:	02060a63          	beqz	a2,1080 <handle_exception+0x208>
    1050:	04000737          	lui	a4,0x4000
    1054:	040005b7          	lui	a1,0x4000
    1058:	04470713          	addi	a4,a4,68 # 4000044 <_stack_end+0x3efe7dc>
    105c:	000106b7          	lui	a3,0x10
    1060:	04058593          	addi	a1,a1,64 # 4000040 <_stack_end+0x3efe7d8>
    1064:	00072783          	lw	a5,0(a4)
    1068:	fed7eee3          	bltu	a5,a3,1064 <handle_exception+0x1ec>
    106c:	00c5a023          	sw	a2,0(a1)
    1070:	00154603          	lbu	a2,1(a0)
    1074:	00150513          	addi	a0,a0,1
    1078:	fe0616e3          	bnez	a2,1064 <handle_exception+0x1ec>
    107c:	00008067          	ret
    1080:	00008067          	ret

00001084 <nextprime>:
    1084:	00200713          	li	a4,2
    1088:	00050793          	mv	a5,a0
    108c:	02a74063          	blt	a4,a0,10ac <nextprime+0x28>
    1090:	00100513          	li	a0,1
    1094:	00f05a63          	blez	a5,10a8 <nextprime+0x24>
    1098:	fff78793          	addi	a5,a5,-1
    109c:	00f037b3          	snez	a5,a5
    10a0:	00278513          	addi	a0,a5,2
    10a4:	00008067          	ret
    10a8:	00008067          	ret
    10ac:	00150793          	addi	a5,a0,1
    10b0:	0017e513          	ori	a0,a5,1
    10b4:	00300613          	li	a2,3
    10b8:	02c567b3          	rem	a5,a0,a2
    10bc:	40155693          	srai	a3,a0,0x1
    10c0:	02078263          	beqz	a5,10e4 <nextprime+0x60>
    10c4:	00268693          	addi	a3,a3,2 # 10002 <__global_pointer+0xe45d>
    10c8:	00300793          	li	a5,3
    10cc:	00c0006f          	j	10d8 <nextprime+0x54>
    10d0:	02f56733          	rem	a4,a0,a5
    10d4:	00070863          	beqz	a4,10e4 <nextprime+0x60>
    10d8:	00178793          	addi	a5,a5,1
    10dc:	fef69ae3          	bne	a3,a5,10d0 <nextprime+0x4c>
    10e0:	00008067          	ret
    10e4:	00250513          	addi	a0,a0,2
    10e8:	fd1ff06f          	j	10b8 <nextprime+0x34>

000010ec <display_string>:
    10ec:	00400893          	li	a7,4
    10f0:	00000073          	ecall
    10f4:	00a00513          	li	a0,10
    10f8:	00b00893          	li	a7,11
    10fc:	00000073          	ecall
    1100:	00008067          	ret

00001104 <timetemplate>:
    1104:	00000517          	auipc	a0,0x0
    1108:	28450513          	addi	a0,a0,644 # 1388 <timstr>
    110c:	fe1ff0ef          	jal	10ec <display_string>
    1110:	3e800513          	li	a0,1000
    1114:	0f0000ef          	jal	1204 <delay>
    1118:	00000517          	auipc	a0,0x0
    111c:	26c50513          	addi	a0,a0,620 # 1384 <mytime>
    1120:	020000ef          	jal	1140 <tick>
    1124:	00000517          	auipc	a0,0x0
    1128:	26450513          	addi	a0,a0,612 # 1388 <timstr>
    112c:	00000297          	auipc	t0,0x0
    1130:	25828293          	addi	t0,t0,600 # 1384 <mytime>
    1134:	0002a583          	lw	a1,0(t0)
    1138:	0f0000ef          	jal	1228 <time2string>
    113c:	fc9ff06f          	j	1104 <timetemplate>

00001140 <tick>:
    1140:	00052283          	lw	t0,0(a0)
    1144:	00128293          	addi	t0,t0,1
    1148:	00f2f313          	andi	t1,t0,15
    114c:	00a33393          	sltiu	t2,t1,10
    1150:	06039063          	bnez	t2,11b0 <tiend>
    1154:	00628293          	addi	t0,t0,6
    1158:	0f02f313          	andi	t1,t0,240
    115c:	06033393          	sltiu	t2,t1,96
    1160:	04039863          	bnez	t2,11b0 <tiend>
    1164:	0a028293          	addi	t0,t0,160
    1168:	00f00e13          	li	t3,15
    116c:	008e1e13          	slli	t3,t3,0x8
    1170:	01c2f333          	and	t1,t0,t3
    1174:	00a00e13          	li	t3,10
    1178:	008e1e13          	slli	t3,t3,0x8
    117c:	01c323b3          	slt	t2,t1,t3
    1180:	02039863          	bnez	t2,11b0 <tiend>
    1184:	60028293          	addi	t0,t0,1536
    1188:	00f00e13          	li	t3,15
    118c:	00ce1e13          	slli	t3,t3,0xc
    1190:	01c2f333          	and	t1,t0,t3
    1194:	00600e13          	li	t3,6
    1198:	00ce1e13          	slli	t3,t3,0xc
    119c:	01c323b3          	slt	t2,t1,t3
    11a0:	00039863          	bnez	t2,11b0 <tiend>
    11a4:	00a00e13          	li	t3,10
    11a8:	00ce1e13          	slli	t3,t3,0xc
    11ac:	01c282b3          	add	t0,t0,t3

000011b0 <tiend>:
    11b0:	00552023          	sw	t0,0(a0)
    11b4:	00008067          	ret

000011b8 <hex2asc>:
    11b8:	00400513          	li	a0,4
    11bc:	ffc10113          	addi	sp,sp,-4
    11c0:	00112023          	sw	ra,0(sp)
    11c4:	018000ef          	jal	11dc <hexasc>
    11c8:	00b00893          	li	a7,11
    11cc:	00000073          	ecall
    11d0:	00012083          	lw	ra,0(sp)
    11d4:	00410113          	addi	sp,sp,4
    11d8:	00008067          	ret

000011dc <hexasc>:
    11dc:	00f57513          	andi	a0,a0,15
    11e0:	00a00293          	li	t0,10
    11e4:	00554863          	blt	a0,t0,11f4 <digit>
    11e8:	03700293          	li	t0,55
    11ec:	00550533          	add	a0,a0,t0
    11f0:	00c0006f          	j	11fc <done>

000011f4 <digit>:
    11f4:	03000293          	li	t0,48
    11f8:	00550533          	add	a0,a0,t0

000011fc <done>:
    11fc:	07f57513          	andi	a0,a0,127
    1200:	00008067          	ret

00001204 <delay>:
    1204:	00050293          	mv	t0,a0

00001208 <delay_while>:
    1208:	00505e63          	blez	t0,1224 <delay_end>
    120c:	fff28293          	addi	t0,t0,-1
    1210:	00004337          	lui	t1,0x4
    1214:	a9830313          	addi	t1,t1,-1384 # 3a98 <__global_pointer+0x1ef3>

00001218 <delay_for>:
    1218:	fff30313          	addi	t1,t1,-1
    121c:	fe031ee3          	bnez	t1,1218 <delay_for>
    1220:	fe9ff06f          	j	1208 <delay_while>

00001224 <delay_end>:
    1224:	00008067          	ret

00001228 <time2string>:
    1228:	ffc10113          	addi	sp,sp,-4
    122c:	00112023          	sw	ra,0(sp)
    1230:	ffc10113          	addi	sp,sp,-4
    1234:	00912023          	sw	s1,0(sp)
    1238:	0085d493          	srli	s1,a1,0x8
    123c:	0ff4f493          	zext.b	s1,s1
    1240:	ffc10113          	addi	sp,sp,-4
    1244:	00a12023          	sw	a0,0(sp)
    1248:	0044d513          	srli	a0,s1,0x4
    124c:	00f57513          	andi	a0,a0,15
    1250:	f8dff0ef          	jal	11dc <hexasc>
    1254:	00050393          	mv	t2,a0
    1258:	00012503          	lw	a0,0(sp)
    125c:	00410113          	addi	sp,sp,4
    1260:	00750023          	sb	t2,0(a0)
    1264:	ffc10113          	addi	sp,sp,-4
    1268:	00a12023          	sw	a0,0(sp)
    126c:	00f4f513          	andi	a0,s1,15
    1270:	f6dff0ef          	jal	11dc <hexasc>
    1274:	00050393          	mv	t2,a0
    1278:	00012503          	lw	a0,0(sp)
    127c:	00410113          	addi	sp,sp,4
    1280:	007500a3          	sb	t2,1(a0)
    1284:	03a00e93          	li	t4,58
    1288:	01d50123          	sb	t4,2(a0)
    128c:	0ff5f493          	zext.b	s1,a1
    1290:	ffc10113          	addi	sp,sp,-4
    1294:	00a12023          	sw	a0,0(sp)
    1298:	0044d513          	srli	a0,s1,0x4
    129c:	00f57513          	andi	a0,a0,15
    12a0:	f3dff0ef          	jal	11dc <hexasc>
    12a4:	00050393          	mv	t2,a0
    12a8:	00012503          	lw	a0,0(sp)
    12ac:	00410113          	addi	sp,sp,4
    12b0:	007501a3          	sb	t2,3(a0)
    12b4:	ffc10113          	addi	sp,sp,-4
    12b8:	00a12023          	sw	a0,0(sp)
    12bc:	00f4f513          	andi	a0,s1,15
    12c0:	f1dff0ef          	jal	11dc <hexasc>
    12c4:	00050393          	mv	t2,a0
    12c8:	00012503          	lw	a0,0(sp)
    12cc:	00410113          	addi	sp,sp,4
    12d0:	00750223          	sb	t2,4(a0)
    12d4:	00000e93          	li	t4,0
    12d8:	01d502a3          	sb	t4,5(a0)
    12dc:	00012483          	lw	s1,0(sp)
    12e0:	00410113          	addi	sp,sp,4
    12e4:	00012083          	lw	ra,0(sp)
    12e8:	00410113          	addi	sp,sp,4
    12ec:	00008067          	ret

Disassembly of section .data:

000012f0 <welcome_msg>:
    12f0:	3d3d                	.insn	2, 0x3d3d
    12f2:	3d3d                	.insn	2, 0x3d3d
    12f4:	3d3d                	.insn	2, 0x3d3d
    12f6:	3d3d                	.insn	2, 0x3d3d
    12f8:	3d3d                	.insn	2, 0x3d3d
    12fa:	3d3d                	.insn	2, 0x3d3d
    12fc:	3d3d                	.insn	2, 0x3d3d
    12fe:	3d3d                	.insn	2, 0x3d3d
    1300:	3d3d                	.insn	2, 0x3d3d
    1302:	3d3d                	.insn	2, 0x3d3d
    1304:	3d3d                	.insn	2, 0x3d3d
    1306:	3d3d                	.insn	2, 0x3d3d
    1308:	3d3d                	.insn	2, 0x3d3d
    130a:	3d3d                	.insn	2, 0x3d3d
    130c:	3d3d                	.insn	2, 0x3d3d
    130e:	3d3d                	.insn	2, 0x3d3d
    1310:	3d3d                	.insn	2, 0x3d3d
    1312:	3d3d                	.insn	2, 0x3d3d
    1314:	3d3d                	.insn	2, 0x3d3d
    1316:	3d3d                	.insn	2, 0x3d3d
    1318:	3d3d                	.insn	2, 0x3d3d
    131a:	3d3d                	.insn	2, 0x3d3d
    131c:	3d3d                	.insn	2, 0x3d3d
    131e:	3d3d                	.insn	2, 0x3d3d
    1320:	3d0a                	.insn	2, 0x3d0a
    1322:	3d3d                	.insn	2, 0x3d3d
    1324:	3d3d                	.insn	2, 0x3d3d
    1326:	5220                	.insn	2, 0x5220
    1328:	5349                	.insn	2, 0x5349
    132a:	20562d43          	.insn	4, 0x20562d43
    132e:	6f42                	.insn	2, 0x6f42
    1330:	552d746f          	jal	s0,d8882 <__global_pointer+0xd6cdd>
    1334:	2070                	.insn	2, 0x2070
    1336:	7250                	.insn	2, 0x7250
    1338:	7365636f          	jal	t1,57a6e <__global_pointer+0x55ec9>
    133c:	6f4e2073          	csrs	0x6f4,t3
    1340:	6f432077          	.insn	4, 0x6f432077
    1344:	706d                	.insn	2, 0x706d
    1346:	656c                	.insn	2, 0x656c
    1348:	6574                	.insn	2, 0x6574
    134a:	3d20                	.insn	2, 0x3d20
    134c:	3d3d                	.insn	2, 0x3d3d
    134e:	3d3d                	.insn	2, 0x3d3d
    1350:	0a3d                	.insn	2, 0x0a3d
    1352:	3d3d                	.insn	2, 0x3d3d
    1354:	3d3d                	.insn	2, 0x3d3d
    1356:	3d3d                	.insn	2, 0x3d3d
    1358:	3d3d                	.insn	2, 0x3d3d
    135a:	3d3d                	.insn	2, 0x3d3d
    135c:	3d3d                	.insn	2, 0x3d3d
    135e:	3d3d                	.insn	2, 0x3d3d
    1360:	3d3d                	.insn	2, 0x3d3d
    1362:	3d3d                	.insn	2, 0x3d3d
    1364:	3d3d                	.insn	2, 0x3d3d
    1366:	3d3d                	.insn	2, 0x3d3d
    1368:	3d3d                	.insn	2, 0x3d3d
    136a:	3d3d                	.insn	2, 0x3d3d
    136c:	3d3d                	.insn	2, 0x3d3d
    136e:	3d3d                	.insn	2, 0x3d3d
    1370:	3d3d                	.insn	2, 0x3d3d
    1372:	3d3d                	.insn	2, 0x3d3d
    1374:	3d3d                	.insn	2, 0x3d3d
    1376:	3d3d                	.insn	2, 0x3d3d
    1378:	3d3d                	.insn	2, 0x3d3d
    137a:	3d3d                	.insn	2, 0x3d3d
    137c:	3d3d                	.insn	2, 0x3d3d
    137e:	3d3d                	.insn	2, 0x3d3d
    1380:	3d3d                	.insn	2, 0x3d3d
    1382:	000a                	.insn	2, 0x000a

00001384 <mytime>:
    1384:	00005957          	.insn	4, 0x5957

00001388 <timstr>:
    1388:	6574                	.insn	2, 0x6574
    138a:	7478                	.insn	2, 0x7478
    138c:	6d20                	.insn	2, 0x6d20
    138e:	2065726f          	jal	tp,58594 <__global_pointer+0x569ef>
    1392:	6574                	.insn	2, 0x6574
    1394:	7478                	.insn	2, 0x7478
    1396:	6c20                	.insn	2, 0x6c20
    1398:	2073746f          	jal	s0,38d9e <__global_pointer+0x371f9>
    139c:	7420666f          	jal	a2,7ade <__global_pointer+0x5f39>
    13a0:	7865                	.insn	2, 0x7865
    13a2:	0074                	.insn	2, 0x0074
    13a4:	0000                	.insn	2, 0x
	...

000013a8 <VGA>:
    13a8:	0000                	.insn	2, 0x
    13aa:	0800                	.insn	2, 0x0800

000013ac <timeoutcount>:
    13ac:	0001                	.insn	2, 0x0001
	...

000013b0 <tenth_hour>:
    13b0:	0002                	.insn	2, 0x0002
	...

000013b4 <hours>:
    13b4:	00000003          	lb	zero,0(zero) # 0 <_isr_handler>

000013b8 <mytime>:
    13b8:	5950                	.insn	2, 0x5950
	...

Disassembly of section .rodata:

00001704 <.rodata>:
    1704:	01c0                	.insn	2, 0x01c0
    1706:	0000                	.insn	2, 0x
    1708:	01cc                	.insn	2, 0x01cc
    170a:	0000                	.insn	2, 0x
    170c:	01d8                	.insn	2, 0x01d8
    170e:	0000                	.insn	2, 0x
    1710:	01e4                	.insn	2, 0x01e4
    1712:	0000                	.insn	2, 0x
    1714:	01f0                	.insn	2, 0x01f0
    1716:	0000                	.insn	2, 0x
    1718:	01fc                	.insn	2, 0x01fc
    171a:	0000                	.insn	2, 0x
    171c:	0208                	.insn	2, 0x0208
    171e:	0000                	.insn	2, 0x
    1720:	0214                	.insn	2, 0x0214
    1722:	0000                	.insn	2, 0x
    1724:	01ac                	.insn	2, 0x01ac
    1726:	0000                	.insn	2, 0x
    1728:	01b4                	.insn	2, 0x01b4
	...

Disassembly of section .rodata.str1.4:

0000172c <.rodata.str1.4>:
    172c:	632d                	.insn	2, 0x632d
    172e:	696c6c6f          	jal	s8,c7dc4 <__global_pointer+0xc621f>
    1732:	6e6f6973          	csrrsi	s2,0x6e6,30
    1736:	772d                	.insn	2, 0x772d
    1738:	6c61                	.insn	2, 0x6c61
    173a:	2d6c                	.insn	2, 0x2d6c
    173c:	0000                	.insn	2, 0x
    173e:	0000                	.insn	2, 0x
    1740:	632d                	.insn	2, 0x632d
    1742:	696c6c6f          	jal	s8,c7dd8 <__global_pointer+0xc6233>
    1746:	6e6f6973          	csrrsi	s2,0x6e6,30
    174a:	732d                	.insn	2, 0x732d
    174c:	616e                	.insn	2, 0x616e
    174e:	002d656b          	.insn	4, 0x002d656b
    1752:	0000                	.insn	2, 0x
    1754:	632d                	.insn	2, 0x632d
    1756:	6568                	.insn	2, 0x6568
    1758:	635f6b63          	bltu	t5,s5,1d8e <__global_pointer+0x1e9>
    175c:	696c6c6f          	jal	s8,c7df2 <__global_pointer+0xc624d>
    1760:	6e6f6973          	csrrsi	s2,0x6e6,30
    1764:	002d                	.insn	2, 0x002d
    1766:	0000                	.insn	2, 0x
    1768:	69696877          	.insn	4, 0x69696877
    176c:	6969                	.insn	2, 0x6969
    176e:	6969                	.insn	2, 0x6969
    1770:	6c69                	.insn	2, 0x6c69
    1772:	0065                	.insn	2, 0x0065
    1774:	532d                	.insn	2, 0x532d
    1776:	6170                	.insn	2, 0x6170
    1778:	665f6e77          	.insn	4, 0x665f6e77
    177c:	2d646f6f          	jal	t5,47a52 <__global_pointer+0x45ead>
    1780:	0000                	.insn	2, 0x
    1782:	0000                	.insn	2, 0x
    1784:	656d                	.insn	2, 0x656d
    1786:	6e69                	.insn	2, 0x6e69
    1788:	6620                	.insn	2, 0x6620
    178a:	20646f6f          	jal	t5,47990 <__global_pointer+0x45deb>
    178e:	7369                	.insn	2, 0x7369
    1790:	6520                	.insn	2, 0x6520
    1792:	7461                	.insn	2, 0x7461
    1794:	6e65                	.insn	2, 0x6e65
    1796:	0000                	.insn	2, 0x
    1798:	632d                	.insn	2, 0x632d
    179a:	6568                	.insn	2, 0x6568
    179c:	665f6b63          	bltu	t5,t0,1e12 <__global_pointer+0x26d>
    17a0:	5f646f6f          	jal	t5,47d96 <__global_pointer+0x461f1>
    17a4:	6c6c6f63          	bltu	s8,t1,1e82 <__global_pointer+0x2dd>
    17a8:	7369                	.insn	2, 0x7369
    17aa:	6f69                	.insn	2, 0x6f69
    17ac:	2d6e                	.insn	2, 0x2d6e
    17ae:	0000                	.insn	2, 0x
    17b0:	752d                	.insn	2, 0x752d
    17b2:	6470                	.insn	2, 0x6470
    17b4:	7461                	.insn	2, 0x7461
    17b6:	2065                	.insn	2, 0x2065
    17b8:	6b616e73          	csrrsi	t3,0x6b6,2
    17bc:	2d65                	.insn	2, 0x2d65
    17be:	0000                	.insn	2, 0x
    17c0:	6574                	.insn	2, 0x6574
    17c2:	00007473          	csrrci	s0,ustatus,0
    17c6:	0000                	.insn	2, 0x
    17c8:	5b0a                	.insn	2, 0x5b0a
    17ca:	5845                	.insn	2, 0x5845
    17cc:	54504543          	.insn	4, 0x54504543
    17d0:	4f49                	.insn	2, 0x4f49
    17d2:	5d4e                	.insn	2, 0x5d4e
    17d4:	4920                	.insn	2, 0x4920
    17d6:	736e                	.insn	2, 0x736e
    17d8:	7274                	.insn	2, 0x7274
    17da:	6375                	.insn	2, 0x6375
    17dc:	6974                	.insn	2, 0x6974
    17de:	61206e6f          	jal	t3,7df0 <__global_pointer+0x624b>
    17e2:	6464                	.insn	2, 0x6464
    17e4:	6572                	.insn	2, 0x6572
    17e6:	6d207373          	csrrci	t1,0x6d2,0
    17ea:	7369                	.insn	2, 0x7369
    17ec:	6c61                	.insn	2, 0x6c61
    17ee:	6769                	.insn	2, 0x6769
    17f0:	6d6e                	.insn	2, 0x6d6e
    17f2:	6e65                	.insn	2, 0x6e65
    17f4:	2e74                	.insn	2, 0x2e74
    17f6:	0020                	.insn	2, 0x0020
    17f8:	5b0a                	.insn	2, 0x5b0a
    17fa:	5845                	.insn	2, 0x5845
    17fc:	54504543          	.insn	4, 0x54504543
    1800:	4f49                	.insn	2, 0x4f49
    1802:	5d4e                	.insn	2, 0x5d4e
    1804:	4920                	.insn	2, 0x4920
    1806:	6c6c                	.insn	2, 0x6c6c
    1808:	6765                	.insn	2, 0x6765
    180a:	6c61                	.insn	2, 0x6c61
    180c:	6920                	.insn	2, 0x6920
    180e:	736e                	.insn	2, 0x736e
    1810:	7274                	.insn	2, 0x7274
    1812:	6375                	.insn	2, 0x6375
    1814:	6974                	.insn	2, 0x6974
    1816:	202e6e6f          	jal	t3,e7a18 <__global_pointer+0xe5e73>
    181a:	0000                	.insn	2, 0x
    181c:	5b0a                	.insn	2, 0x5b0a
    181e:	5845                	.insn	2, 0x5845
    1820:	54504543          	.insn	4, 0x54504543
    1824:	4f49                	.insn	2, 0x4f49
    1826:	5d4e                	.insn	2, 0x5d4e
    1828:	5520                	.insn	2, 0x5520
    182a:	6b6e                	.insn	2, 0x6b6e
    182c:	6f6e                	.insn	2, 0x6f6e
    182e:	65206e77          	.insn	4, 0x65206e77
    1832:	7272                	.insn	2, 0x7272
    1834:	202e726f          	jal	tp,e8a36 <__global_pointer+0xe6e91>
    1838:	0000                	.insn	2, 0x
    183a:	0000                	.insn	2, 0x
    183c:	7845                	.insn	2, 0x7845
    183e:	74706563          	bltu	zero,t2,1f88 <__global_pointer+0x3e3>
    1842:	6f69                	.insn	2, 0x6f69
    1844:	206e                	.insn	2, 0x206e
    1846:	6441                	.insn	2, 0x6441
    1848:	7264                	.insn	2, 0x7264
    184a:	7365                	.insn	2, 0x7365
    184c:	00203a73          	csrrc	s4,frm,zero

Disassembly of section .srodata:

00001850 <food_color>:
    1850:	0000                	.insn	2, 0x
    1852:	00ff    	.insn	10, 0x001000000fff00ff
    185a:	 

00001854 <snake_color>:
    1854:	0fff 0000   	.insn	10, 0x000c0000001000000fff
    185c:	 

00001858 <num_cols>:
    1858:	0010                	.insn	2, 0x0010
	...

0000185c <num_rows>:
    185c:	000c                	.insn	2, 0x000c
	...

00001860 <square_size>:
    1860:	0014                	.insn	2, 0x0014
	...

00001864 <snakespeed>:
    1864:	0005                	.insn	2, 0x0005
	...

Disassembly of section .comment:

00000000 <.comment>:
   0:	3a434347          	.insn	4, 0x3a434347
   4:	2820                	.insn	2, 0x2820
   6:	2029                	.insn	2, 0x2029
   8:	3331                	.insn	2, 0x3331
   a:	322e                	.insn	2, 0x322e
   c:	302e                	.insn	2, 0x302e
	...

Disassembly of section .riscv.attributes:

00000000 <.riscv.attributes>:
   0:	3641                	.insn	2, 0x3641
   2:	0000                	.insn	2, 0x
   4:	7200                	.insn	2, 0x7200
   6:	7369                	.insn	2, 0x7369
   8:	01007663          	bgeu	zero,a6,14 <_isr_routine+0xc>
   c:	002c                	.insn	2, 0x002c
   e:	0000                	.insn	2, 0x
  10:	1004                	.insn	2, 0x1004
  12:	7205                	.insn	2, 0x7205
  14:	3376                	.insn	2, 0x3376
  16:	6932                	.insn	2, 0x6932
  18:	7032                	.insn	2, 0x7032
  1a:	5f31                	.insn	2, 0x5f31
  1c:	326d                	.insn	2, 0x326d
  1e:	3070                	.insn	2, 0x3070
  20:	7a5f 6369 7273      	.insn	6, 0x727363697a5f
  26:	7032                	.insn	2, 0x7032
  28:	5f30                	.insn	2, 0x5f30
  2a:	6d7a                	.insn	2, 0x6d7a
  2c:	756d                	.insn	2, 0x756d
  2e:	316c                	.insn	2, 0x316c
  30:	3070                	.insn	2, 0x3070
  32:	0800                	.insn	2, 0x0800
  34:	0a01                	.insn	2, 0x0a01
  36:	Address 0x36 is out of bounds.

