
main.elf:     file format elf32-littleriscv


Disassembly of section .text:

00000000 <_isr_handler>:
       0:	0080006f          	j	8 <_isr_routine>
       4:	1440006f          	j	148 <_start>

00000008 <_isr_routine>:
       8:	f8010113          	addi	sp,sp,-128
       c:	00112023          	sw	ra,0(sp)
      10:	00312423          	sw	gp,8(sp)
      14:	00412623          	sw	tp,12(sp)
      18:	00512823          	sw	t0,16(sp)
      1c:	00612a23          	sw	t1,20(sp)
      20:	00712c23          	sw	t2,24(sp)
      24:	00812e23          	sw	s0,28(sp)
      28:	02912023          	sw	s1,32(sp)
      2c:	02a12223          	sw	a0,36(sp)
      30:	02b12423          	sw	a1,40(sp)
      34:	02c12623          	sw	a2,44(sp)
      38:	02d12823          	sw	a3,48(sp)
      3c:	02e12a23          	sw	a4,52(sp)
      40:	02f12c23          	sw	a5,56(sp)
      44:	03012e23          	sw	a6,60(sp)
      48:	05112023          	sw	a7,64(sp)
      4c:	05212223          	sw	s2,68(sp)
      50:	05312423          	sw	s3,72(sp)
      54:	05412623          	sw	s4,76(sp)
      58:	05512823          	sw	s5,80(sp)
      5c:	05612a23          	sw	s6,84(sp)
      60:	05712c23          	sw	s7,88(sp)
      64:	05812e23          	sw	s8,92(sp)
      68:	07912023          	sw	s9,96(sp)
      6c:	07a12223          	sw	s10,100(sp)
      70:	07b12423          	sw	s11,104(sp)
      74:	07c12623          	sw	t3,108(sp)
      78:	07d12823          	sw	t4,112(sp)
      7c:	07e12a23          	sw	t5,116(sp)
      80:	07f12c23          	sw	t6,120(sp)
      84:	342022f3          	csrr	t0,mcause
      88:	80000337          	lui	t1,0x80000
      8c:	02536463          	bltu	t1,t0,b4 <external_irq>
      90:	00028833          	add	a6,t0,zero
      94:	00b00313          	li	t1,11
      98:	00628463          	beq	t0,t1,a0 <skip_init_args>
      9c:	34102573          	csrr	a0,mepc

000000a0 <skip_init_args>:
      a0:	37c000ef          	jal	41c <handle_exception>
      a4:	341022f3          	csrr	t0,mepc
      a8:	00428293          	addi	t0,t0,4
      ac:	34129073          	csrw	mepc,t0
      b0:	0180006f          	j	c8 <restore>

000000b4 <external_irq>:
      b4:	800002b7          	lui	t0,0x80000
      b8:	fff28293          	addi	t0,t0,-1 # 7fffffff <_stack_end+0x7fefddff>
      bc:	34202373          	csrr	t1,mcause
      c0:	0062f533          	and	a0,t0,t1
      c4:	0b8000ef          	jal	17c <handle_interrupt>

000000c8 <restore>:
      c8:	00012083          	lw	ra,0(sp)
      cc:	00812183          	lw	gp,8(sp)
      d0:	00c12203          	lw	tp,12(sp)
      d4:	01012283          	lw	t0,16(sp)
      d8:	01412303          	lw	t1,20(sp)
      dc:	01812383          	lw	t2,24(sp)
      e0:	01c12403          	lw	s0,28(sp)
      e4:	02012483          	lw	s1,32(sp)
      e8:	02412503          	lw	a0,36(sp)
      ec:	02812583          	lw	a1,40(sp)
      f0:	02c12603          	lw	a2,44(sp)
      f4:	03012683          	lw	a3,48(sp)
      f8:	03412703          	lw	a4,52(sp)
      fc:	03812783          	lw	a5,56(sp)
     100:	03c12803          	lw	a6,60(sp)
     104:	04012883          	lw	a7,64(sp)
     108:	04412903          	lw	s2,68(sp)
     10c:	04812983          	lw	s3,72(sp)
     110:	04c12a03          	lw	s4,76(sp)
     114:	05012a83          	lw	s5,80(sp)
     118:	05412b03          	lw	s6,84(sp)
     11c:	05812b83          	lw	s7,88(sp)
     120:	05c12c03          	lw	s8,92(sp)
     124:	06012c83          	lw	s9,96(sp)
     128:	06412d03          	lw	s10,100(sp)
     12c:	06812d83          	lw	s11,104(sp)
     130:	06c12e03          	lw	t3,108(sp)
     134:	07012e83          	lw	t4,112(sp)
     138:	07412f03          	lw	t5,116(sp)
     13c:	07812f83          	lw	t6,120(sp)
     140:	08010113          	addi	sp,sp,128
     144:	30200073          	mret

00000148 <_start>:
     148:	00102117          	auipc	sp,0x102
     14c:	0b810113          	addi	sp,sp,184 # 102200 <_stack_end>
     150:	00002197          	auipc	gp,0x2
     154:	06518193          	addi	gp,gp,101 # 21b5 <__global_pointer>
     158:	00001517          	auipc	a0,0x1
     15c:	7a850513          	addi	a0,a0,1960 # 1900 <welcome_msg>
     160:	00400893          	li	a7,4
     164:	00000073          	ecall
     168:	12c000ef          	jal	294 <main>

0000016c <loop>:
     16c:	0000006f          	j	16c <loop>

00000170 <enable_interrupt>:
     170:	30486073          	csrsi	mie,16
     174:	3001e073          	csrsi	mstatus,3
     178:	00008067          	ret

0000017c <handle_interrupt>:
     17c:	01000793          	li	a5,16
     180:	00f50463          	beq	a0,a5,188 <handle_interrupt+0xc>
     184:	00008067          	ret
     188:	ff010113          	addi	sp,sp,-16
     18c:	00812423          	sw	s0,8(sp)
     190:	00002437          	lui	s0,0x2
     194:	9c442603          	lw	a2,-1596(s0) # 19c4 <timeoutcount>
     198:	040007b7          	lui	a5,0x4000
     19c:	0207d703          	lhu	a4,32(a5) # 4000020 <_stack_end+0x3efde20>
     1a0:	00912223          	sw	s1,4(sp)
     1a4:	01212023          	sw	s2,0(sp)
     1a8:	000106b7          	lui	a3,0x10
     1ac:	00002937          	lui	s2,0x2
     1b0:	000024b7          	lui	s1,0x2
     1b4:	fdc92583          	lw	a1,-36(s2) # 1fdc <current_score>
     1b8:	fd84a503          	lw	a0,-40(s1) # 1fd8 <highest_score>
     1bc:	00160613          	addi	a2,a2,1
     1c0:	ffe68693          	addi	a3,a3,-2 # fffe <snakespeed+0xde02>
     1c4:	00112623          	sw	ra,12(sp)
     1c8:	9cc42223          	sw	a2,-1596(s0)
     1cc:	00d77733          	and	a4,a4,a3
     1d0:	02e79023          	sh	a4,32(a5)
     1d4:	00b55463          	bge	a0,a1,1dc <handle_interrupt+0x60>
     1d8:	fcb4ac23          	sw	a1,-40(s1)
     1dc:	51c010ef          	jal	16f8 <get_sw>
     1e0:	04051663          	bnez	a0,22c <handle_interrupt+0xb0>
     1e4:	fd84a503          	lw	a0,-40(s1)
     1e8:	06800593          	li	a1,104
     1ec:	6c4000ef          	jal	8b0 <display_score>
     1f0:	000026b7          	lui	a3,0x2
     1f4:	1fc6a683          	lw	a3,508(a3) # 21fc <snakespeed>
     1f8:	00a00793          	li	a5,10
     1fc:	9c442703          	lw	a4,-1596(s0)
     200:	02d7c7b3          	div	a5,a5,a3
     204:	00f74863          	blt	a4,a5,214 <handle_interrupt+0x98>
     208:	000027b7          	lui	a5,0x2
     20c:	fd47a783          	lw	a5,-44(a5) # 1fd4 <gameover>
     210:	02078663          	beqz	a5,23c <handle_interrupt+0xc0>
     214:	00c12083          	lw	ra,12(sp)
     218:	00812403          	lw	s0,8(sp)
     21c:	00412483          	lw	s1,4(sp)
     220:	00012903          	lw	s2,0(sp)
     224:	01010113          	addi	sp,sp,16
     228:	00008067          	ret
     22c:	fdc92503          	lw	a0,-36(s2)
     230:	06300593          	li	a1,99
     234:	67c000ef          	jal	8b0 <display_score>
     238:	fb9ff06f          	j	1f0 <handle_interrupt+0x74>
     23c:	1bc010ef          	jal	13f8 <clear_counters>
     240:	000026b7          	lui	a3,0x2
     244:	ff46a783          	lw	a5,-12(a3) # 1ff4 <direction>
     248:	00002637          	lui	a2,0x2
     24c:	ff062583          	lw	a1,-16(a2) # 1ff0 <new_direction>
     250:	00278793          	addi	a5,a5,2
     254:	41f7d713          	srai	a4,a5,0x1f
     258:	01e75713          	srli	a4,a4,0x1e
     25c:	00e787b3          	add	a5,a5,a4
     260:	0037f793          	andi	a5,a5,3
     264:	9c042223          	sw	zero,-1596(s0)
     268:	40e787b3          	sub	a5,a5,a4
     26c:	00b78663          	beq	a5,a1,278 <handle_interrupt+0xfc>
     270:	ff062783          	lw	a5,-16(a2)
     274:	fef6aa23          	sw	a5,-12(a3)
     278:	435000ef          	jal	eac <update_snake>
     27c:	00812403          	lw	s0,8(sp)
     280:	00c12083          	lw	ra,12(sp)
     284:	00412483          	lw	s1,4(sp)
     288:	00012903          	lw	s2,0(sp)
     28c:	01010113          	addi	sp,sp,16
     290:	1940106f          	j	1424 <read_counters>

00000294 <main>:
     294:	ff010113          	addi	sp,sp,-16
     298:	00112623          	sw	ra,12(sp)
     29c:	420010ef          	jal	16bc <init>
     2a0:	344010ef          	jal	15e4 <init_snake>
     2a4:	494010ef          	jal	1738 <check_inputs>
     2a8:	00a00513          	li	a0,10
     2ac:	060010ef          	jal	130c <delay>
     2b0:	ff5ff06f          	j	2a4 <main+0x10>

000002b4 <printc>:
     2b4:	04000737          	lui	a4,0x4000
     2b8:	04470713          	addi	a4,a4,68 # 4000044 <_stack_end+0x3efde44>
     2bc:	000106b7          	lui	a3,0x10
     2c0:	00072783          	lw	a5,0(a4)
     2c4:	fed7eee3          	bltu	a5,a3,2c0 <printc+0xc>
     2c8:	040007b7          	lui	a5,0x4000
     2cc:	04a7a023          	sw	a0,64(a5) # 4000040 <_stack_end+0x3efde40>
     2d0:	00008067          	ret

000002d4 <print>:
     2d4:	00054603          	lbu	a2,0(a0)
     2d8:	02060863          	beqz	a2,308 <print+0x34>
     2dc:	04000737          	lui	a4,0x4000
     2e0:	040005b7          	lui	a1,0x4000
     2e4:	04470713          	addi	a4,a4,68 # 4000044 <_stack_end+0x3efde44>
     2e8:	000106b7          	lui	a3,0x10
     2ec:	04058593          	addi	a1,a1,64 # 4000040 <_stack_end+0x3efde40>
     2f0:	00072783          	lw	a5,0(a4)
     2f4:	fed7eee3          	bltu	a5,a3,2f0 <print+0x1c>
     2f8:	00c5a023          	sw	a2,0(a1)
     2fc:	00154603          	lbu	a2,1(a0)
     300:	00150513          	addi	a0,a0,1
     304:	fe0616e3          	bnez	a2,2f0 <print+0x1c>
     308:	00008067          	ret

0000030c <print_dec>:
     30c:	3b9ad737          	lui	a4,0x3b9ad
     310:	040006b7          	lui	a3,0x4000
     314:	04000337          	lui	t1,0x4000
     318:	00a00593          	li	a1,10
     31c:	00000793          	li	a5,0
     320:	a0070713          	addi	a4,a4,-1536 # 3b9aca00 <_stack_end+0x3b8aa800>
     324:	04468693          	addi	a3,a3,68 # 4000044 <_stack_end+0x3efde44>
     328:	00010637          	lui	a2,0x10
     32c:	04030313          	addi	t1,t1,64 # 4000040 <_stack_end+0x3efde40>
     330:	00a00893          	li	a7,10
     334:	04e57063          	bgeu	a0,a4,374 <print_dec+0x68>
     338:	02079e63          	bnez	a5,374 <print_dec+0x68>
     33c:	fff58593          	addi	a1,a1,-1
     340:	02e57533          	remu	a0,a0,a4
     344:	03175733          	divu	a4,a4,a7
     348:	fe0596e3          	bnez	a1,334 <print_dec+0x28>
     34c:	02079263          	bnez	a5,370 <print_dec+0x64>
     350:	04000737          	lui	a4,0x4000
     354:	04470713          	addi	a4,a4,68 # 4000044 <_stack_end+0x3efde44>
     358:	000106b7          	lui	a3,0x10
     35c:	00072783          	lw	a5,0(a4)
     360:	fed7eee3          	bltu	a5,a3,35c <print_dec+0x50>
     364:	040007b7          	lui	a5,0x4000
     368:	03000713          	li	a4,48
     36c:	04e7a023          	sw	a4,64(a5) # 4000040 <_stack_end+0x3efde40>
     370:	00008067          	ret
     374:	02e55833          	divu	a6,a0,a4
     378:	03080813          	addi	a6,a6,48
     37c:	0ff87813          	zext.b	a6,a6
     380:	0006a783          	lw	a5,0(a3) # 10000 <snakespeed+0xde04>
     384:	fec7eee3          	bltu	a5,a2,380 <print_dec+0x74>
     388:	01032023          	sw	a6,0(t1)
     38c:	00100793          	li	a5,1
     390:	fadff06f          	j	33c <print_dec+0x30>

00000394 <print_hex32>:
     394:	04000737          	lui	a4,0x4000
     398:	04470713          	addi	a4,a4,68 # 4000044 <_stack_end+0x3efde44>
     39c:	000106b7          	lui	a3,0x10
     3a0:	00072783          	lw	a5,0(a4)
     3a4:	fed7eee3          	bltu	a5,a3,3a0 <print_hex32+0xc>
     3a8:	03000693          	li	a3,48
     3ac:	040007b7          	lui	a5,0x4000
     3b0:	04000737          	lui	a4,0x4000
     3b4:	04d7a023          	sw	a3,64(a5) # 4000040 <_stack_end+0x3efde40>
     3b8:	04470713          	addi	a4,a4,68 # 4000044 <_stack_end+0x3efde44>
     3bc:	000106b7          	lui	a3,0x10
     3c0:	00072783          	lw	a5,0(a4)
     3c4:	fed7eee3          	bltu	a5,a3,3c0 <print_hex32+0x2c>
     3c8:	04000837          	lui	a6,0x4000
     3cc:	04080813          	addi	a6,a6,64 # 4000040 <_stack_end+0x3efde40>
     3d0:	04000737          	lui	a4,0x4000
     3d4:	07800793          	li	a5,120
     3d8:	00f82023          	sw	a5,0(a6)
     3dc:	01c00613          	li	a2,28
     3e0:	00900313          	li	t1,9
     3e4:	04470713          	addi	a4,a4,68 # 4000044 <_stack_end+0x3efde44>
     3e8:	000106b7          	lui	a3,0x10
     3ec:	ffc00893          	li	a7,-4
     3f0:	00c557b3          	srl	a5,a0,a2
     3f4:	00f7f793          	andi	a5,a5,15
     3f8:	03778593          	addi	a1,a5,55
     3fc:	00f36463          	bltu	t1,a5,404 <print_hex32+0x70>
     400:	03078593          	addi	a1,a5,48
     404:	00072783          	lw	a5,0(a4)
     408:	fed7eee3          	bltu	a5,a3,404 <print_hex32+0x70>
     40c:	00b82023          	sw	a1,0(a6)
     410:	ffc60613          	addi	a2,a2,-4 # fffc <snakespeed+0xde00>
     414:	fd161ee3          	bne	a2,a7,3f0 <print_hex32+0x5c>
     418:	00008067          	ret

0000041c <handle_exception>:
     41c:	00200793          	li	a5,2
     420:	18f80863          	beq	a6,a5,5b0 <handle_exception+0x194>
     424:	00b00793          	li	a5,11
     428:	12f80063          	beq	a6,a5,548 <handle_exception+0x12c>
     42c:	04000737          	lui	a4,0x4000
     430:	14081463          	bnez	a6,578 <handle_exception+0x15c>
     434:	04000837          	lui	a6,0x4000
     438:	00002637          	lui	a2,0x2
     43c:	0a860613          	addi	a2,a2,168 # 20a8 <direction+0xb4>
     440:	00a00593          	li	a1,10
     444:	04470713          	addi	a4,a4,68 # 4000044 <_stack_end+0x3efde44>
     448:	000106b7          	lui	a3,0x10
     44c:	04080813          	addi	a6,a6,64 # 4000040 <_stack_end+0x3efde40>
     450:	00072783          	lw	a5,0(a4)
     454:	fed7eee3          	bltu	a5,a3,450 <handle_exception+0x34>
     458:	00b82023          	sw	a1,0(a6)
     45c:	00164583          	lbu	a1,1(a2)
     460:	00160613          	addi	a2,a2,1
     464:	fe0596e3          	bnez	a1,450 <handle_exception+0x34>
     468:	04000737          	lui	a4,0x4000
     46c:	04000837          	lui	a6,0x4000
     470:	00002637          	lui	a2,0x2
     474:	11c60613          	addi	a2,a2,284 # 211c <direction+0x128>
     478:	04500593          	li	a1,69
     47c:	04470713          	addi	a4,a4,68 # 4000044 <_stack_end+0x3efde44>
     480:	000106b7          	lui	a3,0x10
     484:	04080813          	addi	a6,a6,64 # 4000040 <_stack_end+0x3efde40>
     488:	00072783          	lw	a5,0(a4)
     48c:	fed7eee3          	bltu	a5,a3,488 <handle_exception+0x6c>
     490:	00b82023          	sw	a1,0(a6)
     494:	00164583          	lbu	a1,1(a2)
     498:	00160613          	addi	a2,a2,1
     49c:	fe0596e3          	bnez	a1,488 <handle_exception+0x6c>
     4a0:	04000737          	lui	a4,0x4000
     4a4:	04470713          	addi	a4,a4,68 # 4000044 <_stack_end+0x3efde44>
     4a8:	000106b7          	lui	a3,0x10
     4ac:	00072783          	lw	a5,0(a4)
     4b0:	fed7eee3          	bltu	a5,a3,4ac <handle_exception+0x90>
     4b4:	03000693          	li	a3,48
     4b8:	040007b7          	lui	a5,0x4000
     4bc:	04000737          	lui	a4,0x4000
     4c0:	04d7a023          	sw	a3,64(a5) # 4000040 <_stack_end+0x3efde40>
     4c4:	04470713          	addi	a4,a4,68 # 4000044 <_stack_end+0x3efde44>
     4c8:	000106b7          	lui	a3,0x10
     4cc:	00072783          	lw	a5,0(a4)
     4d0:	fed7eee3          	bltu	a5,a3,4cc <handle_exception+0xb0>
     4d4:	04000837          	lui	a6,0x4000
     4d8:	04080813          	addi	a6,a6,64 # 4000040 <_stack_end+0x3efde40>
     4dc:	04000737          	lui	a4,0x4000
     4e0:	07800793          	li	a5,120
     4e4:	00f82023          	sw	a5,0(a6)
     4e8:	01c00613          	li	a2,28
     4ec:	00900313          	li	t1,9
     4f0:	04470713          	addi	a4,a4,68 # 4000044 <_stack_end+0x3efde44>
     4f4:	000106b7          	lui	a3,0x10
     4f8:	ffc00893          	li	a7,-4
     4fc:	00c557b3          	srl	a5,a0,a2
     500:	00f7f793          	andi	a5,a5,15
     504:	03778593          	addi	a1,a5,55
     508:	00f36463          	bltu	t1,a5,510 <handle_exception+0xf4>
     50c:	03078593          	addi	a1,a5,48
     510:	00072783          	lw	a5,0(a4)
     514:	fed7eee3          	bltu	a5,a3,510 <handle_exception+0xf4>
     518:	00b82023          	sw	a1,0(a6)
     51c:	ffc60613          	addi	a2,a2,-4
     520:	fd161ee3          	bne	a2,a7,4fc <handle_exception+0xe0>
     524:	04000737          	lui	a4,0x4000
     528:	04470713          	addi	a4,a4,68 # 4000044 <_stack_end+0x3efde44>
     52c:	000106b7          	lui	a3,0x10
     530:	00072783          	lw	a5,0(a4)
     534:	fed7eee3          	bltu	a5,a3,530 <handle_exception+0x114>
     538:	040007b7          	lui	a5,0x4000
     53c:	00a00713          	li	a4,10
     540:	04e7a023          	sw	a4,64(a5) # 4000040 <_stack_end+0x3efde40>
     544:	0000006f          	j	544 <handle_exception+0x128>
     548:	00400793          	li	a5,4
     54c:	0af88063          	beq	a7,a5,5ec <handle_exception+0x1d0>
     550:	0d089a63          	bne	a7,a6,624 <handle_exception+0x208>
     554:	04000737          	lui	a4,0x4000
     558:	04470713          	addi	a4,a4,68 # 4000044 <_stack_end+0x3efde44>
     55c:	000106b7          	lui	a3,0x10
     560:	00072783          	lw	a5,0(a4)
     564:	fed7eee3          	bltu	a5,a3,560 <handle_exception+0x144>
     568:	040007b7          	lui	a5,0x4000
     56c:	0ff57513          	zext.b	a0,a0
     570:	04a7a023          	sw	a0,64(a5) # 4000040 <_stack_end+0x3efde40>
     574:	00008067          	ret
     578:	04000837          	lui	a6,0x4000
     57c:	00002637          	lui	a2,0x2
     580:	0fc60613          	addi	a2,a2,252 # 20fc <direction+0x108>
     584:	00a00593          	li	a1,10
     588:	04470713          	addi	a4,a4,68
     58c:	000106b7          	lui	a3,0x10
     590:	04080813          	addi	a6,a6,64 # 4000040 <_stack_end+0x3efde40>
     594:	00072783          	lw	a5,0(a4)
     598:	fed7eee3          	bltu	a5,a3,594 <handle_exception+0x178>
     59c:	00b82023          	sw	a1,0(a6)
     5a0:	00164583          	lbu	a1,1(a2)
     5a4:	00160613          	addi	a2,a2,1
     5a8:	fe0596e3          	bnez	a1,594 <handle_exception+0x178>
     5ac:	ebdff06f          	j	468 <handle_exception+0x4c>
     5b0:	04000737          	lui	a4,0x4000
     5b4:	04000837          	lui	a6,0x4000
     5b8:	00002637          	lui	a2,0x2
     5bc:	0d860613          	addi	a2,a2,216 # 20d8 <direction+0xe4>
     5c0:	00a00593          	li	a1,10
     5c4:	04470713          	addi	a4,a4,68 # 4000044 <_stack_end+0x3efde44>
     5c8:	000106b7          	lui	a3,0x10
     5cc:	04080813          	addi	a6,a6,64 # 4000040 <_stack_end+0x3efde40>
     5d0:	00072783          	lw	a5,0(a4)
     5d4:	fed7eee3          	bltu	a5,a3,5d0 <handle_exception+0x1b4>
     5d8:	00b82023          	sw	a1,0(a6)
     5dc:	00164583          	lbu	a1,1(a2)
     5e0:	00160613          	addi	a2,a2,1
     5e4:	fe0596e3          	bnez	a1,5d0 <handle_exception+0x1b4>
     5e8:	e81ff06f          	j	468 <handle_exception+0x4c>
     5ec:	00054603          	lbu	a2,0(a0)
     5f0:	02060a63          	beqz	a2,624 <handle_exception+0x208>
     5f4:	04000737          	lui	a4,0x4000
     5f8:	040005b7          	lui	a1,0x4000
     5fc:	04470713          	addi	a4,a4,68 # 4000044 <_stack_end+0x3efde44>
     600:	000106b7          	lui	a3,0x10
     604:	04058593          	addi	a1,a1,64 # 4000040 <_stack_end+0x3efde40>
     608:	00072783          	lw	a5,0(a4)
     60c:	fed7eee3          	bltu	a5,a3,608 <handle_exception+0x1ec>
     610:	00c5a023          	sw	a2,0(a1)
     614:	00154603          	lbu	a2,1(a0)
     618:	00150513          	addi	a0,a0,1
     61c:	fe0616e3          	bnez	a2,608 <handle_exception+0x1ec>
     620:	00008067          	ret
     624:	00008067          	ret

00000628 <nextprime>:
     628:	00200713          	li	a4,2
     62c:	00050793          	mv	a5,a0
     630:	02a74063          	blt	a4,a0,650 <nextprime+0x28>
     634:	00100513          	li	a0,1
     638:	00f05a63          	blez	a5,64c <nextprime+0x24>
     63c:	fff78793          	addi	a5,a5,-1
     640:	00f037b3          	snez	a5,a5
     644:	00278513          	addi	a0,a5,2
     648:	00008067          	ret
     64c:	00008067          	ret
     650:	00150793          	addi	a5,a0,1
     654:	0017e513          	ori	a0,a5,1
     658:	00300613          	li	a2,3
     65c:	02c567b3          	rem	a5,a0,a2
     660:	40155693          	srai	a3,a0,0x1
     664:	02078263          	beqz	a5,688 <nextprime+0x60>
     668:	00268693          	addi	a3,a3,2 # 10002 <snakespeed+0xde06>
     66c:	00300793          	li	a5,3
     670:	00c0006f          	j	67c <nextprime+0x54>
     674:	02f56733          	rem	a4,a0,a5
     678:	00070863          	beqz	a4,688 <nextprime+0x60>
     67c:	00178793          	addi	a5,a5,1
     680:	fef69ae3          	bne	a3,a5,674 <nextprime+0x4c>
     684:	00008067          	ret
     688:	00250513          	addi	a0,a0,2
     68c:	fd1ff06f          	j	65c <nextprime+0x34>

00000690 <get_correct_board_color>:
     690:	00b50533          	add	a0,a0,a1
     694:	00157513          	andi	a0,a0,1
     698:	00051863          	bnez	a0,6a8 <get_correct_board_color+0x18>
     69c:	000027b7          	lui	a5,0x2
     6a0:	1e47a503          	lw	a0,484(a5) # 21e4 <green1>
     6a4:	00008067          	ret
     6a8:	000027b7          	lui	a5,0x2
     6ac:	1e07a503          	lw	a0,480(a5) # 21e0 <green2>
     6b0:	00008067          	ret

000006b4 <draw_box>:
     6b4:	000028b7          	lui	a7,0x2
     6b8:	1f88ae03          	lw	t3,504(a7) # 21f8 <square_size>
     6bc:	410e08b3          	sub	a7,t3,a6
     6c0:	05177e63          	bgeu	a4,a7,71c <draw_box+0x68>
     6c4:	40fe0833          	sub	a6,t3,a5
     6c8:	03c58333          	mul	t1,a1,t3
     6cc:	03c50533          	mul	a0,a0,t3
     6d0:	0506f663          	bgeu	a3,a6,71c <draw_box+0x68>
     6d4:	00e507b3          	add	a5,a0,a4
     6d8:	00279593          	slli	a1,a5,0x2
     6dc:	00f585b3          	add	a1,a1,a5
     6e0:	01030333          	add	t1,t1,a6
     6e4:	00659593          	slli	a1,a1,0x6
     6e8:	006585b3          	add	a1,a1,t1
     6ec:	0ff67613          	zext.b	a2,a2
     6f0:	41068833          	sub	a6,a3,a6
     6f4:	00002537          	lui	a0,0x2
     6f8:	00b807b3          	add	a5,a6,a1
     6fc:	9b852683          	lw	a3,-1608(a0) # 19b8 <VGA>
     700:	00f686b3          	add	a3,a3,a5
     704:	00c68023          	sb	a2,0(a3)
     708:	00178793          	addi	a5,a5,1
     70c:	fef598e3          	bne	a1,a5,6fc <draw_box+0x48>
     710:	00170713          	addi	a4,a4,1
     714:	14058593          	addi	a1,a1,320
     718:	ff1710e3          	bne	a4,a7,6f8 <draw_box+0x44>
     71c:	00008067          	ret

00000720 <draw_board>:
     720:	ff010113          	addi	sp,sp,-16
     724:	000027b7          	lui	a5,0x2
     728:	00812623          	sw	s0,12(sp)
     72c:	1f47a403          	lw	s0,500(a5) # 21f4 <num_rows>
     730:	0a040463          	beqz	s0,7d8 <draw_board+0xb8>
     734:	000027b7          	lui	a5,0x2
     738:	1f07ae83          	lw	t4,496(a5) # 21f0 <num_cols>
     73c:	000027b7          	lui	a5,0x2
     740:	1e07af83          	lw	t6,480(a5) # 21e0 <green2>
     744:	000027b7          	lui	a5,0x2
     748:	1e47af03          	lw	t5,484(a5) # 21e4 <green1>
     74c:	000027b7          	lui	a5,0x2
     750:	1f87a803          	lw	a6,504(a5) # 21f8 <square_size>
     754:	080e8263          	beqz	t4,7d8 <draw_board+0xb8>
     758:	00281293          	slli	t0,a6,0x2
     75c:	010282b3          	add	t0,t0,a6
     760:	00629293          	slli	t0,t0,0x6
     764:	00080393          	mv	t2,a6
     768:	00000e13          	li	t3,0
     76c:	000025b7          	lui	a1,0x2
     770:	00038313          	mv	t1,t2
     774:	00000893          	li	a7,0
     778:	01c887b3          	add	a5,a7,t3
     77c:	0017f793          	andi	a5,a5,1
     780:	000f0613          	mv	a2,t5
     784:	00078463          	beqz	a5,78c <draw_board+0x6c>
     788:	000f8613          	mv	a2,t6
     78c:	02080a63          	beqz	a6,7c0 <draw_board+0xa0>
     790:	0ff67613          	zext.b	a2,a2
     794:	00030693          	mv	a3,t1
     798:	00000513          	li	a0,0
     79c:	410687b3          	sub	a5,a3,a6
     7a0:	9b85a703          	lw	a4,-1608(a1) # 19b8 <VGA>
     7a4:	00f70733          	add	a4,a4,a5
     7a8:	00c70023          	sb	a2,0(a4)
     7ac:	00178793          	addi	a5,a5,1
     7b0:	fef698e3          	bne	a3,a5,7a0 <draw_board+0x80>
     7b4:	00150513          	addi	a0,a0,1
     7b8:	14068693          	addi	a3,a3,320
     7bc:	ff0510e3          	bne	a0,a6,79c <draw_board+0x7c>
     7c0:	00188893          	addi	a7,a7,1
     7c4:	01030333          	add	t1,t1,a6
     7c8:	fbd898e3          	bne	a7,t4,778 <draw_board+0x58>
     7cc:	001e0e13          	addi	t3,t3,1
     7d0:	005383b3          	add	t2,t2,t0
     7d4:	f88e1ee3          	bne	t3,s0,770 <draw_board+0x50>
     7d8:	00c12403          	lw	s0,12(sp)
     7dc:	01010113          	addi	sp,sp,16
     7e0:	00008067          	ret

000007e4 <set_displays>:
     7e4:	004007b7          	lui	a5,0x400
     7e8:	00578793          	addi	a5,a5,5 # 400005 <_stack_end+0x2fde05>
     7ec:	00f50533          	add	a0,a0,a5
     7f0:	00b00793          	li	a5,11
     7f4:	00451513          	slli	a0,a0,0x4
     7f8:	0ab7e663          	bltu	a5,a1,8a4 <__heap_size+0xa4>
     7fc:	000027b7          	lui	a5,0x2
     800:	ff878793          	addi	a5,a5,-8 # 1ff8 <direction+0x4>
     804:	00259593          	slli	a1,a1,0x2
     808:	00f585b3          	add	a1,a1,a5
     80c:	0005a783          	lw	a5,0(a1)
     810:	00078067          	jr	a5
     814:	0c600793          	li	a5,198
     818:	00f52023          	sw	a5,0(a0)
     81c:	00008067          	ret
     820:	08900793          	li	a5,137
     824:	00f52023          	sw	a5,0(a0)
     828:	00008067          	ret
     82c:	0c000793          	li	a5,192
     830:	00f52023          	sw	a5,0(a0)
     834:	00008067          	ret
     838:	0f900793          	li	a5,249
     83c:	00f52023          	sw	a5,0(a0)
     840:	00008067          	ret
     844:	0a400793          	li	a5,164
     848:	00f52023          	sw	a5,0(a0)
     84c:	00008067          	ret
     850:	0b000793          	li	a5,176
     854:	00f52023          	sw	a5,0(a0)
     858:	00008067          	ret
     85c:	09900793          	li	a5,153
     860:	00f52023          	sw	a5,0(a0)
     864:	00008067          	ret
     868:	09200793          	li	a5,146
     86c:	00f52023          	sw	a5,0(a0)
     870:	00008067          	ret
     874:	08200793          	li	a5,130
     878:	00f52023          	sw	a5,0(a0)
     87c:	00008067          	ret
     880:	0f800793          	li	a5,248
     884:	00f52023          	sw	a5,0(a0)
     888:	00008067          	ret
     88c:	08000793          	li	a5,128
     890:	00f52023          	sw	a5,0(a0)
     894:	00008067          	ret
     898:	09000793          	li	a5,144
     89c:	00f52023          	sw	a5,0(a0)
     8a0:	00008067          	ret
     8a4:	0ff00793          	li	a5,255
     8a8:	00f52023          	sw	a5,0(a0)
     8ac:	00008067          	ret

000008b0 <display_score>:
     8b0:	00a00793          	li	a5,10
     8b4:	02f567b3          	rem	a5,a0,a5
     8b8:	00900713          	li	a4,9
     8bc:	2af76c63          	bltu	a4,a5,b74 <display_score+0x2c4>
     8c0:	00002737          	lui	a4,0x2
     8c4:	00279793          	slli	a5,a5,0x2
     8c8:	02870713          	addi	a4,a4,40 # 2028 <direction+0x34>
     8cc:	00e787b3          	add	a5,a5,a4
     8d0:	0007a783          	lw	a5,0(a5)
     8d4:	00078067          	jr	a5
     8d8:	040007b7          	lui	a5,0x4000
     8dc:	08000713          	li	a4,128
     8e0:	04e7a823          	sw	a4,80(a5) # 4000050 <_stack_end+0x3efde50>
     8e4:	00a00713          	li	a4,10
     8e8:	02e547b3          	div	a5,a0,a4
     8ec:	00900693          	li	a3,9
     8f0:	02e7e7b3          	rem	a5,a5,a4
     8f4:	28f6e863          	bltu	a3,a5,b84 <display_score+0x2d4>
     8f8:	00002737          	lui	a4,0x2
     8fc:	00279793          	slli	a5,a5,0x2
     900:	05070713          	addi	a4,a4,80 # 2050 <direction+0x5c>
     904:	00e787b3          	add	a5,a5,a4
     908:	0007a783          	lw	a5,0(a5)
     90c:	00078067          	jr	a5
     910:	040007b7          	lui	a5,0x4000
     914:	08000713          	li	a4,128
     918:	06e7a023          	sw	a4,96(a5) # 4000060 <_stack_end+0x3efde60>
     91c:	06400793          	li	a5,100
     920:	02f54533          	div	a0,a0,a5
     924:	00b00793          	li	a5,11
     928:	22a7ee63          	bltu	a5,a0,b64 <display_score+0x2b4>
     92c:	000027b7          	lui	a5,0x2
     930:	07878793          	addi	a5,a5,120 # 2078 <direction+0x84>
     934:	00251513          	slli	a0,a0,0x2
     938:	00f50533          	add	a0,a0,a5
     93c:	00052783          	lw	a5,0(a0)
     940:	00078067          	jr	a5
     944:	040007b7          	lui	a5,0x4000
     948:	0f800713          	li	a4,248
     94c:	06e7a023          	sw	a4,96(a5) # 4000060 <_stack_end+0x3efde60>
     950:	fcdff06f          	j	91c <display_score+0x6c>
     954:	040007b7          	lui	a5,0x4000
     958:	09200713          	li	a4,146
     95c:	06e7a023          	sw	a4,96(a5) # 4000060 <_stack_end+0x3efde60>
     960:	fbdff06f          	j	91c <display_score+0x6c>
     964:	040007b7          	lui	a5,0x4000
     968:	09900713          	li	a4,153
     96c:	06e7a023          	sw	a4,96(a5) # 4000060 <_stack_end+0x3efde60>
     970:	fadff06f          	j	91c <display_score+0x6c>
     974:	040007b7          	lui	a5,0x4000
     978:	08200713          	li	a4,130
     97c:	06e7a023          	sw	a4,96(a5) # 4000060 <_stack_end+0x3efde60>
     980:	f9dff06f          	j	91c <display_score+0x6c>
     984:	040007b7          	lui	a5,0x4000
     988:	0b000713          	li	a4,176
     98c:	06e7a023          	sw	a4,96(a5) # 4000060 <_stack_end+0x3efde60>
     990:	f8dff06f          	j	91c <display_score+0x6c>
     994:	040007b7          	lui	a5,0x4000
     998:	0a400713          	li	a4,164
     99c:	06e7a023          	sw	a4,96(a5) # 4000060 <_stack_end+0x3efde60>
     9a0:	f7dff06f          	j	91c <display_score+0x6c>
     9a4:	040007b7          	lui	a5,0x4000
     9a8:	0f900713          	li	a4,249
     9ac:	06e7a023          	sw	a4,96(a5) # 4000060 <_stack_end+0x3efde60>
     9b0:	f6dff06f          	j	91c <display_score+0x6c>
     9b4:	040007b7          	lui	a5,0x4000
     9b8:	0c000713          	li	a4,192
     9bc:	06e7a023          	sw	a4,96(a5) # 4000060 <_stack_end+0x3efde60>
     9c0:	f5dff06f          	j	91c <display_score+0x6c>
     9c4:	040007b7          	lui	a5,0x4000
     9c8:	09000713          	li	a4,144
     9cc:	06e7a023          	sw	a4,96(a5) # 4000060 <_stack_end+0x3efde60>
     9d0:	f4dff06f          	j	91c <display_score+0x6c>
     9d4:	040007b7          	lui	a5,0x4000
     9d8:	09000713          	li	a4,144
     9dc:	04e7a823          	sw	a4,80(a5) # 4000050 <_stack_end+0x3efde50>
     9e0:	f05ff06f          	j	8e4 <display_score+0x34>
     9e4:	040007b7          	lui	a5,0x4000
     9e8:	0c000713          	li	a4,192
     9ec:	04e7a823          	sw	a4,80(a5) # 4000050 <_stack_end+0x3efde50>
     9f0:	ef5ff06f          	j	8e4 <display_score+0x34>
     9f4:	040007b7          	lui	a5,0x4000
     9f8:	0f900713          	li	a4,249
     9fc:	04e7a823          	sw	a4,80(a5) # 4000050 <_stack_end+0x3efde50>
     a00:	ee5ff06f          	j	8e4 <display_score+0x34>
     a04:	040007b7          	lui	a5,0x4000
     a08:	0a400713          	li	a4,164
     a0c:	04e7a823          	sw	a4,80(a5) # 4000050 <_stack_end+0x3efde50>
     a10:	ed5ff06f          	j	8e4 <display_score+0x34>
     a14:	040007b7          	lui	a5,0x4000
     a18:	0b000713          	li	a4,176
     a1c:	04e7a823          	sw	a4,80(a5) # 4000050 <_stack_end+0x3efde50>
     a20:	ec5ff06f          	j	8e4 <display_score+0x34>
     a24:	040007b7          	lui	a5,0x4000
     a28:	09900713          	li	a4,153
     a2c:	04e7a823          	sw	a4,80(a5) # 4000050 <_stack_end+0x3efde50>
     a30:	eb5ff06f          	j	8e4 <display_score+0x34>
     a34:	040007b7          	lui	a5,0x4000
     a38:	09200713          	li	a4,146
     a3c:	04e7a823          	sw	a4,80(a5) # 4000050 <_stack_end+0x3efde50>
     a40:	ea5ff06f          	j	8e4 <display_score+0x34>
     a44:	040007b7          	lui	a5,0x4000
     a48:	08200713          	li	a4,130
     a4c:	04e7a823          	sw	a4,80(a5) # 4000050 <_stack_end+0x3efde50>
     a50:	e95ff06f          	j	8e4 <display_score+0x34>
     a54:	040007b7          	lui	a5,0x4000
     a58:	0f800713          	li	a4,248
     a5c:	04e7a823          	sw	a4,80(a5) # 4000050 <_stack_end+0x3efde50>
     a60:	e85ff06f          	j	8e4 <display_score+0x34>
     a64:	040007b7          	lui	a5,0x4000
     a68:	0c600713          	li	a4,198
     a6c:	06e7a823          	sw	a4,112(a5) # 4000070 <_stack_end+0x3efde70>
     a70:	0ff00693          	li	a3,255
     a74:	040007b7          	lui	a5,0x4000
     a78:	04000737          	lui	a4,0x4000
     a7c:	08d7a023          	sw	a3,128(a5) # 4000080 <_stack_end+0x3efde80>
     a80:	08d72823          	sw	a3,144(a4) # 4000090 <_stack_end+0x3efde90>
     a84:	06300713          	li	a4,99
     a88:	0ce58863          	beq	a1,a4,b58 <display_score+0x2a8>
     a8c:	06800793          	li	a5,104
     a90:	00f58463          	beq	a1,a5,a98 <display_score+0x1e8>
     a94:	00008067          	ret
     a98:	040007b7          	lui	a5,0x4000
     a9c:	08900713          	li	a4,137
     aa0:	0ae7a023          	sw	a4,160(a5) # 40000a0 <_stack_end+0x3efdea0>
     aa4:	00008067          	ret
     aa8:	040007b7          	lui	a5,0x4000
     aac:	09000713          	li	a4,144
     ab0:	06e7a823          	sw	a4,112(a5) # 4000070 <_stack_end+0x3efde70>
     ab4:	fbdff06f          	j	a70 <display_score+0x1c0>
     ab8:	040007b7          	lui	a5,0x4000
     abc:	08000713          	li	a4,128
     ac0:	06e7a823          	sw	a4,112(a5) # 4000070 <_stack_end+0x3efde70>
     ac4:	fadff06f          	j	a70 <display_score+0x1c0>
     ac8:	040007b7          	lui	a5,0x4000
     acc:	0f800713          	li	a4,248
     ad0:	06e7a823          	sw	a4,112(a5) # 4000070 <_stack_end+0x3efde70>
     ad4:	f9dff06f          	j	a70 <display_score+0x1c0>
     ad8:	040007b7          	lui	a5,0x4000
     adc:	08200713          	li	a4,130
     ae0:	06e7a823          	sw	a4,112(a5) # 4000070 <_stack_end+0x3efde70>
     ae4:	f8dff06f          	j	a70 <display_score+0x1c0>
     ae8:	040007b7          	lui	a5,0x4000
     aec:	09200713          	li	a4,146
     af0:	06e7a823          	sw	a4,112(a5) # 4000070 <_stack_end+0x3efde70>
     af4:	f7dff06f          	j	a70 <display_score+0x1c0>
     af8:	040007b7          	lui	a5,0x4000
     afc:	09900713          	li	a4,153
     b00:	06e7a823          	sw	a4,112(a5) # 4000070 <_stack_end+0x3efde70>
     b04:	f6dff06f          	j	a70 <display_score+0x1c0>
     b08:	040007b7          	lui	a5,0x4000
     b0c:	0b000713          	li	a4,176
     b10:	06e7a823          	sw	a4,112(a5) # 4000070 <_stack_end+0x3efde70>
     b14:	f5dff06f          	j	a70 <display_score+0x1c0>
     b18:	040007b7          	lui	a5,0x4000
     b1c:	0a400713          	li	a4,164
     b20:	06e7a823          	sw	a4,112(a5) # 4000070 <_stack_end+0x3efde70>
     b24:	f4dff06f          	j	a70 <display_score+0x1c0>
     b28:	040007b7          	lui	a5,0x4000
     b2c:	0f900713          	li	a4,249
     b30:	06e7a823          	sw	a4,112(a5) # 4000070 <_stack_end+0x3efde70>
     b34:	f3dff06f          	j	a70 <display_score+0x1c0>
     b38:	040007b7          	lui	a5,0x4000
     b3c:	0c000713          	li	a4,192
     b40:	06e7a823          	sw	a4,112(a5) # 4000070 <_stack_end+0x3efde70>
     b44:	f2dff06f          	j	a70 <display_score+0x1c0>
     b48:	040007b7          	lui	a5,0x4000
     b4c:	08900713          	li	a4,137
     b50:	06e7a823          	sw	a4,112(a5) # 4000070 <_stack_end+0x3efde70>
     b54:	f1dff06f          	j	a70 <display_score+0x1c0>
     b58:	0c600713          	li	a4,198
     b5c:	0ae7a023          	sw	a4,160(a5)
     b60:	00008067          	ret
     b64:	040007b7          	lui	a5,0x4000
     b68:	0ff00713          	li	a4,255
     b6c:	06e7a823          	sw	a4,112(a5) # 4000070 <_stack_end+0x3efde70>
     b70:	f01ff06f          	j	a70 <display_score+0x1c0>
     b74:	040007b7          	lui	a5,0x4000
     b78:	0ff00713          	li	a4,255
     b7c:	04e7a823          	sw	a4,80(a5) # 4000050 <_stack_end+0x3efde50>
     b80:	d65ff06f          	j	8e4 <display_score+0x34>
     b84:	040007b7          	lui	a5,0x4000
     b88:	0ff00713          	li	a4,255
     b8c:	06e7a023          	sw	a4,96(a5) # 4000060 <_stack_end+0x3efde60>
     b90:	d8dff06f          	j	91c <display_score+0x6c>

00000b94 <random_range>:
     b94:	1b100793          	li	a5,433
     b98:	02f507b3          	mul	a5,a0,a5
     b9c:	00003737          	lui	a4,0x3
     ba0:	03970713          	addi	a4,a4,57 # 3039 <snakespeed+0xe3d>
     ba4:	00e787b3          	add	a5,a5,a4
     ba8:	02b7f533          	remu	a0,a5,a1
     bac:	00008067          	ret

00000bb0 <check_collision>:
     bb0:	000027b7          	lui	a5,0x2
     bb4:	9c878793          	addi	a5,a5,-1592 # 19c8 <snake>
     bb8:	0007a603          	lw	a2,0(a5)
     bbc:	00100513          	li	a0,1
     bc0:	06064063          	bltz	a2,c20 <check_collision+0x70>
     bc4:	00002737          	lui	a4,0x2
     bc8:	1f472703          	lw	a4,500(a4) # 21f4 <num_rows>
     bcc:	04e65a63          	bge	a2,a4,c20 <check_collision+0x70>
     bd0:	0047a803          	lw	a6,4(a5)
     bd4:	04084663          	bltz	a6,c20 <check_collision+0x70>
     bd8:	000027b7          	lui	a5,0x2
     bdc:	1f07a783          	lw	a5,496(a5) # 21f0 <num_cols>
     be0:	04f85063          	bge	a6,a5,c20 <check_collision+0x70>
     be4:	000027b7          	lui	a5,0x2
     be8:	fec7a583          	lw	a1,-20(a5) # 1fec <snake_length>
     bec:	02b55c63          	bge	a0,a1,c24 <check_collision+0x74>
     bf0:	000027b7          	lui	a5,0x2
     bf4:	9d078793          	addi	a5,a5,-1584 # 19d0 <snake+0x8>
     bf8:	00100713          	li	a4,1
     bfc:	00c0006f          	j	c08 <check_collision+0x58>
     c00:	00878793          	addi	a5,a5,8
     c04:	02b70063          	beq	a4,a1,c24 <check_collision+0x74>
     c08:	0007a683          	lw	a3,0(a5)
     c0c:	00170713          	addi	a4,a4,1
     c10:	fed618e3          	bne	a2,a3,c00 <check_collision+0x50>
     c14:	0047a683          	lw	a3,4(a5)
     c18:	fed814e3          	bne	a6,a3,c00 <check_collision+0x50>
     c1c:	00100513          	li	a0,1
     c20:	00008067          	ret
     c24:	00000513          	li	a0,0
     c28:	00008067          	ret

00000c2c <game_over>:
     c2c:	000027b7          	lui	a5,0x2
     c30:	00100713          	li	a4,1
     c34:	ff010113          	addi	sp,sp,-16
     c38:	fce7aa23          	sw	a4,-44(a5) # 1fd4 <gameover>
     c3c:	00112623          	sw	ra,12(sp)
     c40:	ae1ff0ef          	jal	720 <draw_board>
     c44:	000027b7          	lui	a5,0x2
     c48:	00002737          	lui	a4,0x2
     c4c:	fdc72703          	lw	a4,-36(a4) # 1fdc <current_score>
     c50:	fd87a683          	lw	a3,-40(a5) # 1fd8 <highest_score>
     c54:	00e6d463          	bge	a3,a4,c5c <game_over+0x30>
     c58:	fce7ac23          	sw	a4,-40(a5)
     c5c:	00c12083          	lw	ra,12(sp)
     c60:	01010113          	addi	sp,sp,16
     c64:	00008067          	ret

00000c68 <spawn_food>:
     c68:	000027b7          	lui	a5,0x2
     c6c:	9c07a703          	lw	a4,-1600(a5) # 19c0 <random_number1>
     c70:	000027b7          	lui	a5,0x2
     c74:	9bc7a583          	lw	a1,-1604(a5) # 19bc <random_number2>
     c78:	1b100793          	li	a5,433
     c7c:	02e78733          	mul	a4,a5,a4
     c80:	fb010113          	addi	sp,sp,-80
     c84:	000026b7          	lui	a3,0x2
     c88:	01b12e23          	sw	s11,28(sp)
     c8c:	1f46ad83          	lw	s11,500(a3) # 21f4 <num_rows>
     c90:	000026b7          	lui	a3,0x2
     c94:	03712623          	sw	s7,44(sp)
     c98:	00003637          	lui	a2,0x3
     c9c:	1f06ab83          	lw	s7,496(a3) # 21f0 <num_cols>
     ca0:	03960613          	addi	a2,a2,57 # 3039 <snakespeed+0xe3d>
     ca4:	02b787b3          	mul	a5,a5,a1
     ca8:	00c70733          	add	a4,a4,a2
     cac:	03312e23          	sw	s3,60(sp)
     cb0:	000029b7          	lui	s3,0x2
     cb4:	fec9a683          	lw	a3,-20(s3) # 1fec <snake_length>
     cb8:	05212023          	sw	s2,64(sp)
     cbc:	03612823          	sw	s6,48(sp)
     cc0:	00002937          	lui	s2,0x2
     cc4:	00002b37          	lui	s6,0x2
     cc8:	03512a23          	sw	s5,52(sp)
     ccc:	00c787b3          	add	a5,a5,a2
     cd0:	03b77733          	remu	a4,a4,s11
     cd4:	00002ab7          	lui	s5,0x2
     cd8:	04112623          	sw	ra,76(sp)
     cdc:	fdcaa503          	lw	a0,-36(s5) # 1fdc <current_score>
     ce0:	0377f7b3          	remu	a5,a5,s7
     ce4:	fee92423          	sw	a4,-24(s2) # 1fe8 <food_x>
     ce8:	fefb2223          	sw	a5,-28(s6) # 1fe4 <food_y>
     cec:	14d05c63          	blez	a3,e44 <spawn_food+0x1dc>
     cf0:	037d87b3          	mul	a5,s11,s7
     cf4:	03812423          	sw	s8,40(sp)
     cf8:	00002c37          	lui	s8,0x2
     cfc:	03412c23          	sw	s4,56(sp)
     d00:	03912223          	sw	s9,36(sp)
     d04:	03a12023          	sw	s10,32(sp)
     d08:	04812423          	sw	s0,72(sp)
     d0c:	04912223          	sw	s1,68(sp)
     d10:	9c8c0c13          	addi	s8,s8,-1592 # 19c8 <snake>
     d14:	fffb8d13          	addi	s10,s7,-1
     d18:	00f12623          	sw	a5,12(sp)
     d1c:	00002a37          	lui	s4,0x2
     d20:	ffd78c93          	addi	s9,a5,-3
     d24:	000c0413          	mv	s0,s8
     d28:	00000493          	li	s1,0
     d2c:	00000593          	li	a1,0
     d30:	0100006f          	j	d40 <spawn_food+0xd8>
     d34:	00148493          	addi	s1,s1,1
     d38:	00840413          	addi	s0,s0,8
     d3c:	0cd4de63          	bge	s1,a3,e18 <spawn_food+0x1b0>
     d40:	fe892703          	lw	a4,-24(s2)
     d44:	00042783          	lw	a5,0(s0)
     d48:	fee796e3          	bne	a5,a4,d34 <spawn_food+0xcc>
     d4c:	fe4b2603          	lw	a2,-28(s6)
     d50:	00442703          	lw	a4,4(s0)
     d54:	fec710e3          	bne	a4,a2,d34 <spawn_food+0xcc>
     d58:	00170613          	addi	a2,a4,1
     d5c:	03766633          	rem	a2,a2,s7
     d60:	01a71863          	bne	a4,s10,d70 <spawn_food+0x108>
     d64:	00178793          	addi	a5,a5,1
     d68:	03b7e7b3          	rem	a5,a5,s11
     d6c:	fef92423          	sw	a5,-24(s2)
     d70:	fecb2223          	sw	a2,-28(s6)
     d74:	00100593          	li	a1,1
     d78:	faac9ee3          	bne	s9,a0,d34 <spawn_food+0xcc>
     d7c:	000027b7          	lui	a5,0x2
     d80:	00100713          	li	a4,1
     d84:	fce7aa23          	sw	a4,-44(a5) # 1fd4 <gameover>
     d88:	999ff0ef          	jal	720 <draw_board>
     d8c:	fdcaa503          	lw	a0,-36(s5)
     d90:	fd8a2783          	lw	a5,-40(s4) # 1fd8 <highest_score>
     d94:	fec9a683          	lw	a3,-20(s3)
     d98:	00a7d463          	bge	a5,a0,da0 <spawn_food+0x138>
     d9c:	fcaa2c23          	sw	a0,-40(s4)
     da0:	00148493          	addi	s1,s1,1
     da4:	00840413          	addi	s0,s0,8
     da8:	f8d4c2e3          	blt	s1,a3,d2c <spawn_food+0xc4>
     dac:	04812403          	lw	s0,72(sp)
     db0:	04412483          	lw	s1,68(sp)
     db4:	03812a03          	lw	s4,56(sp)
     db8:	02812c03          	lw	s8,40(sp)
     dbc:	02412c83          	lw	s9,36(sp)
     dc0:	02012d03          	lw	s10,32(sp)
     dc4:	00c12783          	lw	a5,12(sp)
     dc8:	ffd78993          	addi	s3,a5,-3
     dcc:	04a98a63          	beq	s3,a0,e20 <spawn_food+0x1b8>
     dd0:	000027b7          	lui	a5,0x2
     dd4:	1e87a803          	lw	a6,488(a5) # 21e8 <food_offset>
     dd8:	00002737          	lui	a4,0x2
     ddc:	1d872603          	lw	a2,472(a4) # 21d8 <food_color>
     de0:	fe4b2583          	lw	a1,-28(s6)
     de4:	fe892503          	lw	a0,-24(s2)
     de8:	04c12083          	lw	ra,76(sp)
     dec:	04012903          	lw	s2,64(sp)
     df0:	03c12983          	lw	s3,60(sp)
     df4:	03412a83          	lw	s5,52(sp)
     df8:	03012b03          	lw	s6,48(sp)
     dfc:	02c12b83          	lw	s7,44(sp)
     e00:	01c12d83          	lw	s11,28(sp)
     e04:	00080793          	mv	a5,a6
     e08:	00080713          	mv	a4,a6
     e0c:	00080693          	mv	a3,a6
     e10:	05010113          	addi	sp,sp,80
     e14:	8a1ff06f          	j	6b4 <draw_box>
     e18:	f00596e3          	bnez	a1,d24 <spawn_food+0xbc>
     e1c:	f91ff06f          	j	dac <spawn_food+0x144>
     e20:	04c12083          	lw	ra,76(sp)
     e24:	04012903          	lw	s2,64(sp)
     e28:	03c12983          	lw	s3,60(sp)
     e2c:	03412a83          	lw	s5,52(sp)
     e30:	03012b03          	lw	s6,48(sp)
     e34:	02c12b83          	lw	s7,44(sp)
     e38:	01c12d83          	lw	s11,28(sp)
     e3c:	05010113          	addi	sp,sp,80
     e40:	00008067          	ret
     e44:	037d87b3          	mul	a5,s11,s7
     e48:	00f12623          	sw	a5,12(sp)
     e4c:	f79ff06f          	j	dc4 <spawn_food+0x15c>

00000e50 <check_food_collision>:
     e50:	000027b7          	lui	a5,0x2
     e54:	9c878793          	addi	a5,a5,-1592 # 19c8 <snake>
     e58:	00002737          	lui	a4,0x2
     e5c:	0007a683          	lw	a3,0(a5)
     e60:	fe872703          	lw	a4,-24(a4) # 1fe8 <food_x>
     e64:	00e68463          	beq	a3,a4,e6c <check_food_collision+0x1c>
     e68:	00008067          	ret
     e6c:	0047a703          	lw	a4,4(a5)
     e70:	000027b7          	lui	a5,0x2
     e74:	fe47a783          	lw	a5,-28(a5) # 1fe4 <food_y>
     e78:	fef718e3          	bne	a4,a5,e68 <check_food_collision+0x18>
     e7c:	00002637          	lui	a2,0x2
     e80:	000026b7          	lui	a3,0x2
     e84:	fec62703          	lw	a4,-20(a2) # 1fec <snake_length>
     e88:	fdc6a783          	lw	a5,-36(a3) # 1fdc <current_score>
     e8c:	000025b7          	lui	a1,0x2
     e90:	00170713          	addi	a4,a4,1
     e94:	00178793          	addi	a5,a5,1
     e98:	00100513          	li	a0,1
     e9c:	fea5a023          	sw	a0,-32(a1) # 1fe0 <has_eaten>
     ea0:	fee62623          	sw	a4,-20(a2)
     ea4:	fcf6ae23          	sw	a5,-36(a3)
     ea8:	dc1ff06f          	j	c68 <spawn_food>

00000eac <update_snake>:
     eac:	fd010113          	addi	sp,sp,-48
     eb0:	01312e23          	sw	s3,28(sp)
     eb4:	000029b7          	lui	s3,0x2
     eb8:	fec9a303          	lw	t1,-20(s3) # 1fec <snake_length>
     ebc:	03212023          	sw	s2,32(sp)
     ec0:	01412c23          	sw	s4,24(sp)
     ec4:	00002937          	lui	s2,0x2
     ec8:	00002a37          	lui	s4,0x2
     ecc:	fff30793          	addi	a5,t1,-1
     ed0:	02812423          	sw	s0,40(sp)
     ed4:	00379713          	slli	a4,a5,0x3
     ed8:	9c8a0413          	addi	s0,s4,-1592 # 19c8 <snake>
     edc:	fe092683          	lw	a3,-32(s2) # 1fe0 <has_eaten>
     ee0:	00e40733          	add	a4,s0,a4
     ee4:	02912223          	sw	s1,36(sp)
     ee8:	01512a23          	sw	s5,20(sp)
     eec:	01612823          	sw	s6,16(sp)
     ef0:	00072a83          	lw	s5,0(a4)
     ef4:	00472b03          	lw	s6,4(a4)
     ef8:	02112623          	sw	ra,44(sp)
     efc:	00002737          	lui	a4,0x2
     f00:	1ec72483          	lw	s1,492(a4) # 21ec <snake_offset>
     f04:	1e068063          	beqz	a3,10e4 <update_snake+0x238>
     f08:	fe092023          	sw	zero,-32(s2)
     f0c:	02f05463          	blez	a5,f34 <update_snake+0x88>
     f10:	00379793          	slli	a5,a5,0x3
     f14:	00f407b3          	add	a5,s0,a5
     f18:	9c8a0413          	addi	s0,s4,-1592
     f1c:	ffc7a683          	lw	a3,-4(a5)
     f20:	ff87a703          	lw	a4,-8(a5)
     f24:	ff878793          	addi	a5,a5,-8
     f28:	00d7a623          	sw	a3,12(a5)
     f2c:	00e7a423          	sw	a4,8(a5)
     f30:	fef416e3          	bne	s0,a5,f1c <update_snake+0x70>
     f34:	000027b7          	lui	a5,0x2
     f38:	ff47a783          	lw	a5,-12(a5) # 1ff4 <direction>
     f3c:	00200613          	li	a2,2
     f40:	00042503          	lw	a0,0(s0)
     f44:	41f7d693          	srai	a3,a5,0x1f
     f48:	01e6d693          	srli	a3,a3,0x1e
     f4c:	00d78733          	add	a4,a5,a3
     f50:	00377713          	andi	a4,a4,3
     f54:	40d70733          	sub	a4,a4,a3
     f58:	24c70463          	beq	a4,a2,11a0 <update_snake+0x2f4>
     f5c:	00300693          	li	a3,3
     f60:	20d70863          	beq	a4,a3,1170 <update_snake+0x2c4>
     f64:	0037f793          	andi	a5,a5,3
     f68:	0e078063          	beqz	a5,1048 <update_snake+0x19c>
     f6c:	00100793          	li	a5,1
     f70:	26f71263          	bne	a4,a5,11d4 <update_snake+0x328>
     f74:	000027b7          	lui	a5,0x2
     f78:	1f87a703          	lw	a4,504(a5) # 21f8 <square_size>
     f7c:	00150513          	addi	a0,a0,1
     f80:	00a42023          	sw	a0,0(s0)
     f84:	40970733          	sub	a4,a4,s1
     f88:	00048b13          	mv	s6,s1
     f8c:	00048a93          	mv	s5,s1
     f90:	00048793          	mv	a5,s1
     f94:	00048693          	mv	a3,s1
     f98:	00000a13          	li	s4,0
     f9c:	00000813          	li	a6,0
     fa0:	04054c63          	bltz	a0,ff8 <update_snake+0x14c>
     fa4:	00002637          	lui	a2,0x2
     fa8:	1f462603          	lw	a2,500(a2) # 21f4 <num_rows>
     fac:	04c55663          	bge	a0,a2,ff8 <update_snake+0x14c>
     fb0:	00442e03          	lw	t3,4(s0)
     fb4:	040e4263          	bltz	t3,ff8 <update_snake+0x14c>
     fb8:	00002637          	lui	a2,0x2
     fbc:	1f062603          	lw	a2,496(a2) # 21f0 <num_cols>
     fc0:	02ce5c63          	bge	t3,a2,ff8 <update_snake+0x14c>
     fc4:	00100613          	li	a2,1
     fc8:	0a665a63          	bge	a2,t1,107c <update_snake+0x1d0>
     fcc:	00002637          	lui	a2,0x2
     fd0:	9d060613          	addi	a2,a2,-1584 # 19d0 <snake+0x8>
     fd4:	00100593          	li	a1,1
     fd8:	00c0006f          	j	fe4 <update_snake+0x138>
     fdc:	00860613          	addi	a2,a2,8
     fe0:	08658e63          	beq	a1,t1,107c <update_snake+0x1d0>
     fe4:	00062883          	lw	a7,0(a2)
     fe8:	00158593          	addi	a1,a1,1
     fec:	fea898e3          	bne	a7,a0,fdc <update_snake+0x130>
     ff0:	00462883          	lw	a7,4(a2)
     ff4:	ff1e14e3          	bne	t3,a7,fdc <update_snake+0x130>
     ff8:	000027b7          	lui	a5,0x2
     ffc:	00100713          	li	a4,1
    1000:	fce7aa23          	sw	a4,-44(a5) # 1fd4 <gameover>
    1004:	f1cff0ef          	jal	720 <draw_board>
    1008:	000027b7          	lui	a5,0x2
    100c:	00002737          	lui	a4,0x2
    1010:	fdc72703          	lw	a4,-36(a4) # 1fdc <current_score>
    1014:	fd87a683          	lw	a3,-40(a5) # 1fd8 <highest_score>
    1018:	00e6d463          	bge	a3,a4,1020 <update_snake+0x174>
    101c:	fce7ac23          	sw	a4,-40(a5)
    1020:	02c12083          	lw	ra,44(sp)
    1024:	02812403          	lw	s0,40(sp)
    1028:	02412483          	lw	s1,36(sp)
    102c:	02012903          	lw	s2,32(sp)
    1030:	01c12983          	lw	s3,28(sp)
    1034:	01812a03          	lw	s4,24(sp)
    1038:	01412a83          	lw	s5,20(sp)
    103c:	01012b03          	lw	s6,16(sp)
    1040:	03010113          	addi	sp,sp,48
    1044:	00008067          	ret
    1048:	00442603          	lw	a2,4(s0)
    104c:	00002737          	lui	a4,0x2
    1050:	1f872683          	lw	a3,504(a4) # 21f8 <square_size>
    1054:	00160613          	addi	a2,a2,1
    1058:	00048b13          	mv	s6,s1
    105c:	409686b3          	sub	a3,a3,s1
    1060:	00048a93          	mv	s5,s1
    1064:	00048a13          	mv	s4,s1
    1068:	00048813          	mv	a6,s1
    106c:	00048713          	mv	a4,s1
    1070:	00c42223          	sw	a2,4(s0)
    1074:	00000493          	li	s1,0
    1078:	f29ff06f          	j	fa0 <update_snake+0xf4>
    107c:	00002637          	lui	a2,0x2
    1080:	fe862603          	lw	a2,-24(a2) # 1fe8 <food_x>
    1084:	08a60c63          	beq	a2,a0,111c <update_snake+0x270>
    1088:	00002637          	lui	a2,0x2
    108c:	1dc62903          	lw	s2,476(a2) # 21dc <snake_color>
    1090:	00c42583          	lw	a1,12(s0)
    1094:	00842503          	lw	a0,8(s0)
    1098:	00090613          	mv	a2,s2
    109c:	e18ff0ef          	jal	6b4 <draw_box>
    10a0:	00442583          	lw	a1,4(s0)
    10a4:	00042503          	lw	a0,0(s0)
    10a8:	02812403          	lw	s0,40(sp)
    10ac:	02c12083          	lw	ra,44(sp)
    10b0:	01c12983          	lw	s3,28(sp)
    10b4:	000b0813          	mv	a6,s6
    10b8:	000a8793          	mv	a5,s5
    10bc:	01012b03          	lw	s6,16(sp)
    10c0:	01412a83          	lw	s5,20(sp)
    10c4:	000a0713          	mv	a4,s4
    10c8:	00048693          	mv	a3,s1
    10cc:	01812a03          	lw	s4,24(sp)
    10d0:	02412483          	lw	s1,36(sp)
    10d4:	00090613          	mv	a2,s2
    10d8:	02012903          	lw	s2,32(sp)
    10dc:	03010113          	addi	sp,sp,48
    10e0:	dd4ff06f          	j	6b4 <draw_box>
    10e4:	000b0593          	mv	a1,s6
    10e8:	000a8513          	mv	a0,s5
    10ec:	da4ff0ef          	jal	690 <get_correct_board_color>
    10f0:	00050613          	mv	a2,a0
    10f4:	00000793          	li	a5,0
    10f8:	00000813          	li	a6,0
    10fc:	00000713          	li	a4,0
    1100:	00000693          	li	a3,0
    1104:	000b0593          	mv	a1,s6
    1108:	000a8513          	mv	a0,s5
    110c:	da8ff0ef          	jal	6b4 <draw_box>
    1110:	fec9a303          	lw	t1,-20(s3)
    1114:	fff30793          	addi	a5,t1,-1
    1118:	df5ff06f          	j	f0c <update_snake+0x60>
    111c:	00002637          	lui	a2,0x2
    1120:	fe462603          	lw	a2,-28(a2) # 1fe4 <food_y>
    1124:	f6ce12e3          	bne	t3,a2,1088 <update_snake+0x1dc>
    1128:	00002537          	lui	a0,0x2
    112c:	fdc52583          	lw	a1,-36(a0) # 1fdc <current_score>
    1130:	00130613          	addi	a2,t1,1
    1134:	00100893          	li	a7,1
    1138:	00158593          	addi	a1,a1,1
    113c:	01012623          	sw	a6,12(sp)
    1140:	00f12423          	sw	a5,8(sp)
    1144:	00e12223          	sw	a4,4(sp)
    1148:	00d12023          	sw	a3,0(sp)
    114c:	ff192023          	sw	a7,-32(s2)
    1150:	fec9a623          	sw	a2,-20(s3)
    1154:	fcb52e23          	sw	a1,-36(a0)
    1158:	b11ff0ef          	jal	c68 <spawn_food>
    115c:	00c12803          	lw	a6,12(sp)
    1160:	00812783          	lw	a5,8(sp)
    1164:	00412703          	lw	a4,4(sp)
    1168:	00012683          	lw	a3,0(sp)
    116c:	f1dff06f          	j	1088 <update_snake+0x1dc>
    1170:	000027b7          	lui	a5,0x2
    1174:	1f87a803          	lw	a6,504(a5) # 21f8 <square_size>
    1178:	fff50513          	addi	a0,a0,-1
    117c:	00a42023          	sw	a0,0(s0)
    1180:	40980833          	sub	a6,a6,s1
    1184:	00048a93          	mv	s5,s1
    1188:	00048a13          	mv	s4,s1
    118c:	00048793          	mv	a5,s1
    1190:	00048693          	mv	a3,s1
    1194:	00000b13          	li	s6,0
    1198:	00000713          	li	a4,0
    119c:	e05ff06f          	j	fa0 <update_snake+0xf4>
    11a0:	00442783          	lw	a5,4(s0)
    11a4:	00002737          	lui	a4,0x2
    11a8:	00048b13          	mv	s6,s1
    11ac:	fff78793          	addi	a5,a5,-1
    11b0:	00f42223          	sw	a5,4(s0)
    11b4:	1f872783          	lw	a5,504(a4) # 21f8 <square_size>
    11b8:	00048a13          	mv	s4,s1
    11bc:	00048813          	mv	a6,s1
    11c0:	409787b3          	sub	a5,a5,s1
    11c4:	00048713          	mv	a4,s1
    11c8:	00000a93          	li	s5,0
    11cc:	00000693          	li	a3,0
    11d0:	dd1ff06f          	j	fa0 <update_snake+0xf4>
    11d4:	00048b13          	mv	s6,s1
    11d8:	00048a93          	mv	s5,s1
    11dc:	00048a13          	mv	s4,s1
    11e0:	00048813          	mv	a6,s1
    11e4:	00048793          	mv	a5,s1
    11e8:	00048713          	mv	a4,s1
    11ec:	00048693          	mv	a3,s1
    11f0:	db1ff06f          	j	fa0 <update_snake+0xf4>

000011f4 <display_string>:
    11f4:	00400893          	li	a7,4
    11f8:	00000073          	ecall
    11fc:	00a00513          	li	a0,10
    1200:	00b00893          	li	a7,11
    1204:	00000073          	ecall
    1208:	00008067          	ret

0000120c <timetemplate>:
    120c:	00000517          	auipc	a0,0x0
    1210:	78c50513          	addi	a0,a0,1932 # 1998 <timstr>
    1214:	fe1ff0ef          	jal	11f4 <display_string>
    1218:	3e800513          	li	a0,1000
    121c:	0f0000ef          	jal	130c <delay>
    1220:	00000517          	auipc	a0,0x0
    1224:	77450513          	addi	a0,a0,1908 # 1994 <mytime>
    1228:	020000ef          	jal	1248 <tick>
    122c:	00000517          	auipc	a0,0x0
    1230:	76c50513          	addi	a0,a0,1900 # 1998 <timstr>
    1234:	00000297          	auipc	t0,0x0
    1238:	76028293          	addi	t0,t0,1888 # 1994 <mytime>
    123c:	0002a583          	lw	a1,0(t0)
    1240:	0f0000ef          	jal	1330 <time2string>
    1244:	fc9ff06f          	j	120c <timetemplate>

00001248 <tick>:
    1248:	00052283          	lw	t0,0(a0)
    124c:	00128293          	addi	t0,t0,1
    1250:	00f2f313          	andi	t1,t0,15
    1254:	00a33393          	sltiu	t2,t1,10
    1258:	06039063          	bnez	t2,12b8 <tiend>
    125c:	00628293          	addi	t0,t0,6
    1260:	0f02f313          	andi	t1,t0,240
    1264:	06033393          	sltiu	t2,t1,96
    1268:	04039863          	bnez	t2,12b8 <tiend>
    126c:	0a028293          	addi	t0,t0,160
    1270:	00f00e13          	li	t3,15
    1274:	008e1e13          	slli	t3,t3,0x8
    1278:	01c2f333          	and	t1,t0,t3
    127c:	00a00e13          	li	t3,10
    1280:	008e1e13          	slli	t3,t3,0x8
    1284:	01c323b3          	slt	t2,t1,t3
    1288:	02039863          	bnez	t2,12b8 <tiend>
    128c:	60028293          	addi	t0,t0,1536
    1290:	00f00e13          	li	t3,15
    1294:	00ce1e13          	slli	t3,t3,0xc
    1298:	01c2f333          	and	t1,t0,t3
    129c:	00600e13          	li	t3,6
    12a0:	00ce1e13          	slli	t3,t3,0xc
    12a4:	01c323b3          	slt	t2,t1,t3
    12a8:	00039863          	bnez	t2,12b8 <tiend>
    12ac:	00a00e13          	li	t3,10
    12b0:	00ce1e13          	slli	t3,t3,0xc
    12b4:	01c282b3          	add	t0,t0,t3

000012b8 <tiend>:
    12b8:	00552023          	sw	t0,0(a0)
    12bc:	00008067          	ret

000012c0 <hex2asc>:
    12c0:	00400513          	li	a0,4
    12c4:	ffc10113          	addi	sp,sp,-4
    12c8:	00112023          	sw	ra,0(sp)
    12cc:	018000ef          	jal	12e4 <hexasc>
    12d0:	00b00893          	li	a7,11
    12d4:	00000073          	ecall
    12d8:	00012083          	lw	ra,0(sp)
    12dc:	00410113          	addi	sp,sp,4
    12e0:	00008067          	ret

000012e4 <hexasc>:
    12e4:	00f57513          	andi	a0,a0,15
    12e8:	00a00293          	li	t0,10
    12ec:	00554863          	blt	a0,t0,12fc <digit>
    12f0:	03700293          	li	t0,55
    12f4:	00550533          	add	a0,a0,t0
    12f8:	00c0006f          	j	1304 <done>

000012fc <digit>:
    12fc:	03000293          	li	t0,48
    1300:	00550533          	add	a0,a0,t0

00001304 <done>:
    1304:	07f57513          	andi	a0,a0,127
    1308:	00008067          	ret

0000130c <delay>:
    130c:	00050293          	mv	t0,a0

00001310 <delay_while>:
    1310:	00505e63          	blez	t0,132c <delay_end>
    1314:	fff28293          	addi	t0,t0,-1
    1318:	00004337          	lui	t1,0x4
    131c:	a9830313          	addi	t1,t1,-1384 # 3a98 <snakespeed+0x189c>

00001320 <delay_for>:
    1320:	fff30313          	addi	t1,t1,-1
    1324:	fe031ee3          	bnez	t1,1320 <delay_for>
    1328:	fe9ff06f          	j	1310 <delay_while>

0000132c <delay_end>:
    132c:	00008067          	ret

00001330 <time2string>:
    1330:	ffc10113          	addi	sp,sp,-4
    1334:	00112023          	sw	ra,0(sp)
    1338:	ffc10113          	addi	sp,sp,-4
    133c:	00912023          	sw	s1,0(sp)
    1340:	0085d493          	srli	s1,a1,0x8
    1344:	0ff4f493          	zext.b	s1,s1
    1348:	ffc10113          	addi	sp,sp,-4
    134c:	00a12023          	sw	a0,0(sp)
    1350:	0044d513          	srli	a0,s1,0x4
    1354:	00f57513          	andi	a0,a0,15
    1358:	f8dff0ef          	jal	12e4 <hexasc>
    135c:	00050393          	mv	t2,a0
    1360:	00012503          	lw	a0,0(sp)
    1364:	00410113          	addi	sp,sp,4
    1368:	00750023          	sb	t2,0(a0)
    136c:	ffc10113          	addi	sp,sp,-4
    1370:	00a12023          	sw	a0,0(sp)
    1374:	00f4f513          	andi	a0,s1,15
    1378:	f6dff0ef          	jal	12e4 <hexasc>
    137c:	00050393          	mv	t2,a0
    1380:	00012503          	lw	a0,0(sp)
    1384:	00410113          	addi	sp,sp,4
    1388:	007500a3          	sb	t2,1(a0)
    138c:	03a00e93          	li	t4,58
    1390:	01d50123          	sb	t4,2(a0)
    1394:	0ff5f493          	zext.b	s1,a1
    1398:	ffc10113          	addi	sp,sp,-4
    139c:	00a12023          	sw	a0,0(sp)
    13a0:	0044d513          	srli	a0,s1,0x4
    13a4:	00f57513          	andi	a0,a0,15
    13a8:	f3dff0ef          	jal	12e4 <hexasc>
    13ac:	00050393          	mv	t2,a0
    13b0:	00012503          	lw	a0,0(sp)
    13b4:	00410113          	addi	sp,sp,4
    13b8:	007501a3          	sb	t2,3(a0)
    13bc:	ffc10113          	addi	sp,sp,-4
    13c0:	00a12023          	sw	a0,0(sp)
    13c4:	00f4f513          	andi	a0,s1,15
    13c8:	f1dff0ef          	jal	12e4 <hexasc>
    13cc:	00050393          	mv	t2,a0
    13d0:	00012503          	lw	a0,0(sp)
    13d4:	00410113          	addi	sp,sp,4
    13d8:	00750223          	sb	t2,4(a0)
    13dc:	00000e93          	li	t4,0
    13e0:	01d502a3          	sb	t4,5(a0)
    13e4:	00012483          	lw	s1,0(sp)
    13e8:	00410113          	addi	sp,sp,4
    13ec:	00012083          	lw	ra,0(sp)
    13f0:	00410113          	addi	sp,sp,4
    13f4:	00008067          	ret

000013f8 <clear_counters>:
    13f8:	b0001073          	csrw	mcycle,zero
    13fc:	b0001073          	csrw	mcycle,zero
    1400:	b0201073          	csrw	minstret,zero
    1404:	b0301073          	csrw	mhpmcounter3,zero
    1408:	b0401073          	csrw	mhpmcounter4,zero
    140c:	b0501073          	csrw	mhpmcounter5,zero
    1410:	b0601073          	csrw	mhpmcounter6,zero
    1414:	b0701073          	csrw	mhpmcounter7,zero
    1418:	b0801073          	csrw	mhpmcounter8,zero
    141c:	b0901073          	csrw	mhpmcounter9,zero
    1420:	00008067          	ret

00001424 <read_counters>:
    1424:	00002537          	lui	a0,0x2
    1428:	fa010113          	addi	sp,sp,-96
    142c:	13050513          	addi	a0,a0,304 # 2130 <direction+0x13c>
    1430:	04112e23          	sw	ra,92(sp)
    1434:	b0902873          	csrr	a6,mhpmcounter9
    1438:	b0802673          	csrr	a2,mhpmcounter8
    143c:	01012423          	sw	a6,8(sp)
    1440:	01112623          	sw	a7,12(sp)
    1444:	00c12823          	sw	a2,16(sp)
    1448:	00d12a23          	sw	a3,20(sp)
    144c:	b0702773          	csrr	a4,mhpmcounter7
    1450:	04812c23          	sw	s0,88(sp)
    1454:	00e12c23          	sw	a4,24(sp)
    1458:	00f12e23          	sw	a5,28(sp)
    145c:	04912a23          	sw	s1,84(sp)
    1460:	05212823          	sw	s2,80(sp)
    1464:	05312623          	sw	s3,76(sp)
    1468:	05412423          	sw	s4,72(sp)
    146c:	05512223          	sw	s5,68(sp)
    1470:	05612023          	sw	s6,64(sp)
    1474:	03712e23          	sw	s7,60(sp)
    1478:	03812c23          	sw	s8,56(sp)
    147c:	03912a23          	sw	s9,52(sp)
    1480:	03a12823          	sw	s10,48(sp)
    1484:	03b12623          	sw	s11,44(sp)
    1488:	e4dfe0ef          	jal	2d4 <print>
    148c:	b0002d73          	csrr	s10,mcycle
    1490:	000d8593          	mv	a1,s11
    1494:	000d0513          	mv	a0,s10
    1498:	41c000ef          	jal	18b4 <__fixunsdfsi>
    149c:	e71fe0ef          	jal	30c <print_dec>
    14a0:	00002537          	lui	a0,0x2
    14a4:	13c50513          	addi	a0,a0,316 # 213c <direction+0x148>
    14a8:	e2dfe0ef          	jal	2d4 <print>
    14ac:	b0202c73          	csrr	s8,minstret
    14b0:	000c8593          	mv	a1,s9
    14b4:	000c0513          	mv	a0,s8
    14b8:	3fc000ef          	jal	18b4 <__fixunsdfsi>
    14bc:	e51fe0ef          	jal	30c <print_dec>
    14c0:	00002537          	lui	a0,0x2
    14c4:	14c50513          	addi	a0,a0,332 # 214c <direction+0x158>
    14c8:	e0dfe0ef          	jal	2d4 <print>
    14cc:	b0302b73          	csrr	s6,mhpmcounter3
    14d0:	000b8593          	mv	a1,s7
    14d4:	000b0513          	mv	a0,s6
    14d8:	3dc000ef          	jal	18b4 <__fixunsdfsi>
    14dc:	e31fe0ef          	jal	30c <print_dec>
    14e0:	00002537          	lui	a0,0x2
    14e4:	16050513          	addi	a0,a0,352 # 2160 <direction+0x16c>
    14e8:	dedfe0ef          	jal	2d4 <print>
    14ec:	b0402a73          	csrr	s4,mhpmcounter4
    14f0:	000a8593          	mv	a1,s5
    14f4:	000a0513          	mv	a0,s4
    14f8:	3bc000ef          	jal	18b4 <__fixunsdfsi>
    14fc:	e11fe0ef          	jal	30c <print_dec>
    1500:	00002537          	lui	a0,0x2
    1504:	17450513          	addi	a0,a0,372 # 2174 <direction+0x180>
    1508:	dcdfe0ef          	jal	2d4 <print>
    150c:	b0502973          	csrr	s2,mhpmcounter5
    1510:	00098593          	mv	a1,s3
    1514:	00090513          	mv	a0,s2
    1518:	39c000ef          	jal	18b4 <__fixunsdfsi>
    151c:	df1fe0ef          	jal	30c <print_dec>
    1520:	00002537          	lui	a0,0x2
    1524:	18850513          	addi	a0,a0,392 # 2188 <direction+0x194>
    1528:	dadfe0ef          	jal	2d4 <print>
    152c:	b0602473          	csrr	s0,mhpmcounter6
    1530:	00048593          	mv	a1,s1
    1534:	00040513          	mv	a0,s0
    1538:	37c000ef          	jal	18b4 <__fixunsdfsi>
    153c:	dd1fe0ef          	jal	30c <print_dec>
    1540:	00002537          	lui	a0,0x2
    1544:	19c50513          	addi	a0,a0,412 # 219c <direction+0x1a8>
    1548:	d8dfe0ef          	jal	2d4 <print>
    154c:	01812703          	lw	a4,24(sp)
    1550:	01c12783          	lw	a5,28(sp)
    1554:	00070513          	mv	a0,a4
    1558:	00078593          	mv	a1,a5
    155c:	358000ef          	jal	18b4 <__fixunsdfsi>
    1560:	dadfe0ef          	jal	30c <print_dec>
    1564:	00002537          	lui	a0,0x2
    1568:	1b050513          	addi	a0,a0,432 # 21b0 <direction+0x1bc>
    156c:	d69fe0ef          	jal	2d4 <print>
    1570:	01012603          	lw	a2,16(sp)
    1574:	01412683          	lw	a3,20(sp)
    1578:	00060513          	mv	a0,a2
    157c:	00068593          	mv	a1,a3
    1580:	334000ef          	jal	18b4 <__fixunsdfsi>
    1584:	d89fe0ef          	jal	30c <print_dec>
    1588:	00002537          	lui	a0,0x2
    158c:	1c450513          	addi	a0,a0,452 # 21c4 <__global_pointer+0xf>
    1590:	d45fe0ef          	jal	2d4 <print>
    1594:	00812803          	lw	a6,8(sp)
    1598:	00c12883          	lw	a7,12(sp)
    159c:	00080513          	mv	a0,a6
    15a0:	00088593          	mv	a1,a7
    15a4:	310000ef          	jal	18b4 <__fixunsdfsi>
    15a8:	05812403          	lw	s0,88(sp)
    15ac:	05c12083          	lw	ra,92(sp)
    15b0:	05412483          	lw	s1,84(sp)
    15b4:	05012903          	lw	s2,80(sp)
    15b8:	04c12983          	lw	s3,76(sp)
    15bc:	04812a03          	lw	s4,72(sp)
    15c0:	04412a83          	lw	s5,68(sp)
    15c4:	04012b03          	lw	s6,64(sp)
    15c8:	03c12b83          	lw	s7,60(sp)
    15cc:	03812c03          	lw	s8,56(sp)
    15d0:	03412c83          	lw	s9,52(sp)
    15d4:	03012d03          	lw	s10,48(sp)
    15d8:	02c12d83          	lw	s11,44(sp)
    15dc:	06010113          	addi	sp,sp,96
    15e0:	d2dfe06f          	j	30c <print_dec>

000015e4 <init_snake>:
    15e4:	00002737          	lui	a4,0x2
    15e8:	fe072a23          	sw	zero,-12(a4) # 1ff4 <direction>
    15ec:	00300693          	li	a3,3
    15f0:	00002737          	lui	a4,0x2
    15f4:	fed72623          	sw	a3,-20(a4) # 1fec <snake_length>
    15f8:	00002737          	lui	a4,0x2
    15fc:	ff010113          	addi	sp,sp,-16
    1600:	fe072823          	sw	zero,-16(a4) # 1ff0 <new_direction>
    1604:	00002737          	lui	a4,0x2
    1608:	00812423          	sw	s0,8(sp)
    160c:	fe072023          	sw	zero,-32(a4) # 1fe0 <has_eaten>
    1610:	00002437          	lui	s0,0x2
    1614:	00002737          	lui	a4,0x2
    1618:	00112623          	sw	ra,12(sp)
    161c:	9c840413          	addi	s0,s0,-1592 # 19c8 <snake>
    1620:	fc072e23          	sw	zero,-36(a4) # 1fdc <current_score>
    1624:	00800713          	li	a4,8
    1628:	00600793          	li	a5,6
    162c:	00e42223          	sw	a4,4(s0)
    1630:	00700713          	li	a4,7
    1634:	00f42023          	sw	a5,0(s0)
    1638:	00f42423          	sw	a5,8(s0)
    163c:	00e42623          	sw	a4,12(s0)
    1640:	00f42823          	sw	a5,16(s0)
    1644:	00f42a23          	sw	a5,20(s0)
    1648:	8d8ff0ef          	jal	720 <draw_board>
    164c:	00442583          	lw	a1,4(s0)
    1650:	00042503          	lw	a0,0(s0)
    1654:	00400813          	li	a6,4
    1658:	00400793          	li	a5,4
    165c:	00400713          	li	a4,4
    1660:	00000693          	li	a3,0
    1664:	0ff00613          	li	a2,255
    1668:	84cff0ef          	jal	6b4 <draw_box>
    166c:	00c42583          	lw	a1,12(s0)
    1670:	00842503          	lw	a0,8(s0)
    1674:	00400813          	li	a6,4
    1678:	00000793          	li	a5,0
    167c:	00400713          	li	a4,4
    1680:	00000693          	li	a3,0
    1684:	0ff00613          	li	a2,255
    1688:	82cff0ef          	jal	6b4 <draw_box>
    168c:	01442583          	lw	a1,20(s0)
    1690:	01042503          	lw	a0,16(s0)
    1694:	00400813          	li	a6,4
    1698:	00000793          	li	a5,0
    169c:	00400713          	li	a4,4
    16a0:	00400693          	li	a3,4
    16a4:	0ff00613          	li	a2,255
    16a8:	80cff0ef          	jal	6b4 <draw_box>
    16ac:	00812403          	lw	s0,8(sp)
    16b0:	00c12083          	lw	ra,12(sp)
    16b4:	01010113          	addi	sp,sp,16
    16b8:	db0ff06f          	j	c68 <spawn_food>

000016bc <init>:
    16bc:	04000737          	lui	a4,0x4000
    16c0:	ffffc637          	lui	a2,0xffffc
    16c4:	0e072223          	sw	zero,228(a4) # 40000e4 <_stack_end+0x3efdee4>
    16c8:	040007b7          	lui	a5,0x4000
    16cc:	6bf60613          	addi	a2,a2,1727 # ffffc6bf <_stack_end+0xffefa4bf>
    16d0:	02c79423          	sh	a2,40(a5) # 4000028 <_stack_end+0x3efde28>
    16d4:	040006b7          	lui	a3,0x4000
    16d8:	02d00613          	li	a2,45
    16dc:	040007b7          	lui	a5,0x4000
    16e0:	02c69623          	sh	a2,44(a3) # 400002c <_stack_end+0x3efde2c>
    16e4:	00700713          	li	a4,7
    16e8:	02e79223          	sh	a4,36(a5) # 4000024 <_stack_end+0x3efde24>
    16ec:	30486073          	csrsi	mie,16
    16f0:	3001e073          	csrsi	mstatus,3
    16f4:	00008067          	ret

000016f8 <get_sw>:
    16f8:	040007b7          	lui	a5,0x4000
    16fc:	0107a503          	lw	a0,16(a5) # 4000010 <_stack_end+0x3efde10>
    1700:	00157513          	andi	a0,a0,1
    1704:	00008067          	ret

00001708 <get_btn_restart>:
    1708:	040007b7          	lui	a5,0x4000
    170c:	0d07a503          	lw	a0,208(a5) # 40000d0 <_stack_end+0x3efded0>
    1710:	00157513          	andi	a0,a0,1
    1714:	00008067          	ret

00001718 <get_btn1>:
    1718:	040007b7          	lui	a5,0x4000
    171c:	0e07a503          	lw	a0,224(a5) # 40000e0 <_stack_end+0x3efdee0>
    1720:	00157513          	andi	a0,a0,1
    1724:	00008067          	ret

00001728 <get_btn2>:
    1728:	040007b7          	lui	a5,0x4000
    172c:	0e07a503          	lw	a0,224(a5) # 40000e0 <_stack_end+0x3efdee0>
    1730:	00257513          	andi	a0,a0,2
    1734:	00008067          	ret

00001738 <check_inputs>:
    1738:	00002637          	lui	a2,0x2
    173c:	00002737          	lui	a4,0x2
    1740:	9c062783          	lw	a5,-1600(a2) # 19c0 <random_number1>
    1744:	9bc72583          	lw	a1,-1604(a4) # 19bc <random_number2>
    1748:	ff010113          	addi	sp,sp,-16
    174c:	00178793          	addi	a5,a5,1
    1750:	00158693          	addi	a3,a1,1
    1754:	00112623          	sw	ra,12(sp)
    1758:	08500513          	li	a0,133
    175c:	9cf62023          	sw	a5,-1600(a2)
    1760:	9ad72e23          	sw	a3,-1604(a4)
    1764:	00f55a63          	bge	a0,a5,1778 <check_inputs+0x40>
    1768:	00258693          	addi	a3,a1,2
    176c:	00100793          	li	a5,1
    1770:	9cf62023          	sw	a5,-1600(a2)
    1774:	9ad72e23          	sw	a3,-1604(a4)
    1778:	11500793          	li	a5,277
    177c:	00d7d663          	bge	a5,a3,1788 <check_inputs+0x50>
    1780:	00100793          	li	a5,1
    1784:	9af72e23          	sw	a5,-1604(a4)
    1788:	04000737          	lui	a4,0x4000
    178c:	0d072783          	lw	a5,208(a4) # 40000d0 <_stack_end+0x3efded0>
    1790:	0017f793          	andi	a5,a5,1
    1794:	00078863          	beqz	a5,17a4 <check_inputs+0x6c>
    1798:	000027b7          	lui	a5,0x2
    179c:	fd07a703          	lw	a4,-48(a5) # 1fd0 <reset_button_pressed>
    17a0:	0e070e63          	beqz	a4,189c <check_inputs+0x164>
    17a4:	04000737          	lui	a4,0x4000
    17a8:	0d072783          	lw	a5,208(a4) # 40000d0 <_stack_end+0x3efded0>
    17ac:	0017f793          	andi	a5,a5,1
    17b0:	0e078063          	beqz	a5,1890 <check_inputs+0x158>
    17b4:	04000737          	lui	a4,0x4000
    17b8:	0e072783          	lw	a5,224(a4) # 40000e0 <_stack_end+0x3efdee0>
    17bc:	000026b7          	lui	a3,0x2
    17c0:	fcc6a603          	lw	a2,-52(a3) # 1fcc <left_button_pressed>
    17c4:	0017f793          	andi	a5,a5,1
    17c8:	0e070713          	addi	a4,a4,224
    17cc:	00c7e7b3          	or	a5,a5,a2
    17d0:	0a079663          	bnez	a5,187c <check_inputs+0x144>
    17d4:	000027b7          	lui	a5,0x2
    17d8:	ff47a783          	lw	a5,-12(a5) # 1ff4 <direction>
    17dc:	00378793          	addi	a5,a5,3
    17e0:	41f7d713          	srai	a4,a5,0x1f
    17e4:	01e75713          	srli	a4,a4,0x1e
    17e8:	00e787b3          	add	a5,a5,a4
    17ec:	0037f793          	andi	a5,a5,3
    17f0:	40e787b3          	sub	a5,a5,a4
    17f4:	00100713          	li	a4,1
    17f8:	fce6a623          	sw	a4,-52(a3)
    17fc:	00002737          	lui	a4,0x2
    1800:	fef72823          	sw	a5,-16(a4) # 1ff0 <new_direction>
    1804:	04000737          	lui	a4,0x4000
    1808:	0e072783          	lw	a5,224(a4) # 40000e0 <_stack_end+0x3efdee0>
    180c:	000026b7          	lui	a3,0x2
    1810:	fc86a603          	lw	a2,-56(a3) # 1fc8 <right_button_pressed>
    1814:	0027f793          	andi	a5,a5,2
    1818:	0e070713          	addi	a4,a4,224
    181c:	00c7e7b3          	or	a5,a5,a2
    1820:	04079063          	bnez	a5,1860 <check_inputs+0x128>
    1824:	000027b7          	lui	a5,0x2
    1828:	ff47a783          	lw	a5,-12(a5) # 1ff4 <direction>
    182c:	00178793          	addi	a5,a5,1
    1830:	41f7d713          	srai	a4,a5,0x1f
    1834:	01e75713          	srli	a4,a4,0x1e
    1838:	00e787b3          	add	a5,a5,a4
    183c:	0037f793          	andi	a5,a5,3
    1840:	40e787b3          	sub	a5,a5,a4
    1844:	00100713          	li	a4,1
    1848:	fce6a423          	sw	a4,-56(a3)
    184c:	00002737          	lui	a4,0x2
    1850:	fef72823          	sw	a5,-16(a4) # 1ff0 <new_direction>
    1854:	00c12083          	lw	ra,12(sp)
    1858:	01010113          	addi	sp,sp,16
    185c:	00008067          	ret
    1860:	00072783          	lw	a5,0(a4)
    1864:	0027f793          	andi	a5,a5,2
    1868:	fe0786e3          	beqz	a5,1854 <check_inputs+0x11c>
    186c:	00c12083          	lw	ra,12(sp)
    1870:	fc06a423          	sw	zero,-56(a3)
    1874:	01010113          	addi	sp,sp,16
    1878:	00008067          	ret
    187c:	00072783          	lw	a5,0(a4)
    1880:	0017f793          	andi	a5,a5,1
    1884:	f80780e3          	beqz	a5,1804 <check_inputs+0xcc>
    1888:	fc06a623          	sw	zero,-52(a3)
    188c:	f79ff06f          	j	1804 <check_inputs+0xcc>
    1890:	000027b7          	lui	a5,0x2
    1894:	fc07a823          	sw	zero,-48(a5) # 1fd0 <reset_button_pressed>
    1898:	f1dff06f          	j	17b4 <check_inputs+0x7c>
    189c:	00100713          	li	a4,1
    18a0:	fce7a823          	sw	a4,-48(a5)
    18a4:	000027b7          	lui	a5,0x2
    18a8:	fc07aa23          	sw	zero,-44(a5) # 1fd4 <gameover>
    18ac:	d39ff0ef          	jal	15e4 <init_snake>
    18b0:	f05ff06f          	j	17b4 <check_inputs+0x7c>

000018b4 <__fixunsdfsi>:
    18b4:	04b05263          	blez	a1,18f8 <undflow>
    18b8:	00159593          	slli	a1,a1,0x1
    18bc:	0155d613          	srli	a2,a1,0x15
    18c0:	c0160613          	addi	a2,a2,-1023
    18c4:	02064a63          	bltz	a2,18f8 <undflow>
    18c8:	40c00633          	neg	a2,a2
    18cc:	01f60613          	addi	a2,a2,31
    18d0:	02064063          	bltz	a2,18f0 <ovflow>
    18d4:	00a59593          	slli	a1,a1,0xa
    18d8:	01555513          	srli	a0,a0,0x15
    18dc:	00a5e5b3          	or	a1,a1,a0
    18e0:	80000737          	lui	a4,0x80000
    18e4:	00e5e5b3          	or	a1,a1,a4
    18e8:	00c5d533          	srl	a0,a1,a2
    18ec:	00008067          	ret

000018f0 <ovflow>:
    18f0:	fff00513          	li	a0,-1
    18f4:	00008067          	ret

000018f8 <undflow>:
    18f8:	00000513          	li	a0,0
    18fc:	00008067          	ret

Disassembly of section .srodata:

000021d8 <food_color>:
    21d8:	00e0                	.insn	2, 0x00e0
	...

000021dc <snake_color>:
    21dc:	00ff 0000   	.insn	10, 0x004c0000009c000000ff
    21e4:	 

000021e0 <green2>:
    21e0:	009c                	.insn	2, 0x009c
	...

000021e4 <green1>:
    21e4:	004c                	.insn	2, 0x004c
	...

000021e8 <food_offset>:
    21e8:	0006                	.insn	2, 0x0006
	...

000021ec <snake_offset>:
    21ec:	0004                	.insn	2, 0x0004
	...

000021f0 <num_cols>:
    21f0:	0010                	.insn	2, 0x0010
	...

000021f4 <num_rows>:
    21f4:	000c                	.insn	2, 0x000c
	...

000021f8 <square_size>:
    21f8:	0014                	.insn	2, 0x0014
	...

000021fc <snakespeed>:
    21fc:	0005                	.insn	2, 0x0005
	...
